

Microchip MPLAB XC8 Assembler V2.20 build 20200408173844 
                                                                                               Sat Dec 12 20:57:00 2020

Microchip MPLAB XC8 C Compiler v2.20 (Free license) build 20200408173844 Og1 
     1                           	processor	16LF1827
     2                           	pagewidth 120
     3                           	opt	flic
     4                           	psect	stringtext1,global,class=STRCODE,delta=2,noexec
     5                           	psect	nvBANK0,global,class=BANK0,space=1,delta=1,noexec
     6                           	psect	cinit,global,class=CODE,merge=1,delta=2
     7                           	psect	bssCOMMON,global,class=COMMON,space=1,delta=1,noexec
     8                           	psect	bssBANK0,global,class=BANK0,space=1,delta=1,noexec
     9                           	psect	cstackCOMMON,global,class=COMMON,space=1,delta=1,noexec
    10                           	psect	maintext,global,class=CODE,merge=1,split=1,delta=2
    11                           	psect	text1,local,class=CODE,merge=1,delta=2
    12                           	psect	text2,local,class=CODE,merge=1,delta=2
    13                           	psect	text3,local,class=CODE,merge=1,delta=2
    14                           	psect	text4,local,class=CODE,merge=1,delta=2
    15                           	psect	text5,local,class=CODE,merge=1,delta=2
    16                           	psect	text6,local,class=CODE,merge=1,delta=2
    17                           	psect	text7,local,class=CODE,merge=1,delta=2
    18                           	psect	text8,local,class=CODE,merge=1,delta=2
    19                           	psect	text9,local,class=CODE,merge=1,delta=2
    20                           	psect	intentry,global,class=CODE,delta=2
    21                           	psect	text11,local,class=CODE,merge=1,delta=2
    22                           	psect	text12,local,class=CODE,merge=1,delta=2
    23                           	psect	text13,local,class=CODE,merge=1,delta=2
    24                           	psect	text14,local,class=CODE,merge=1,delta=2
    25                           	psect	text15,local,class=CODE,merge=1,delta=2
    26                           	psect	text16,local,class=CODE,merge=1,delta=2
    27                           	psect	config,global,abs,ovrld,class=CONFIG,space=4,delta=2,noexec
    28                           	dabs	1,0x7E,2
    29  0000                     
    30                           ; Version 2.20
    31                           ; Generated 12/02/2020 GMT
    32                           ; 
    33                           ; Copyright © 2020, Microchip Technology Inc. and its subsidiaries ("Microchip")
    34                           ; All rights reserved.
    35                           ; 
    36                           ; This software is developed by Microchip Technology Inc. and its subsidiaries ("Microch
      +                          ip").
    37                           ; 
    38                           ; Redistribution and use in source and binary forms, with or without modification, are
    39                           ; permitted provided that the following conditions are met:
    40                           ; 
    41                           ;     1. Redistributions of source code must retain the above copyright notice, this lis
      +                          t of
    42                           ;        conditions and the following disclaimer.
    43                           ; 
    44                           ;     2. Redistributions in binary form must reproduce the above copyright notice, this 
      +                          list
    45                           ;        of conditions and the following disclaimer in the documentation and/or other
    46                           ;        materials provided with the distribution.
    47                           ; 
    48                           ;     3. Microchip's name may not be used to endorse or promote products derived from th
      +                          is
    49                           ;        software without specific prior written permission.
    50                           ; 
    51                           ; THIS SOFTWARE IS PROVIDED BY MICROCHIP "AS IS" AND ANY EXPRESS OR IMPLIED WARRANTIES,
    52                           ; INCLUDING, BUT NOT LIMITED TO, THE IMPLIED WARRANTIES OF MERCHANTABILITY AND FITNESS F
      +                          OR
    53                           ; PURPOSE ARE DISCLAIMED.  IN NO EVENT SHALL MICROCHIP BE LIABLE FOR ANY DIRECT, INDIREC
      +                          T,
    54                           ; INCIDENTAL, SPECIAL, EXEMPLARY, OR CONSEQUENTIAL DAMAGES (INCLUDING BUT NOT LIMITED TO
    55                           ; PROCUREMENT OF SUBSTITUTE GOODS OR SERVICES; LOSS OF USE, DATA OR PROFITS; OR BUSINESS
    56                           ; INTERRUPTION) HOWSOEVER CAUSED AND ON ANY THEORY OF LIABILITY, WHETHER IN CONTRACT, ST
      +                          RICT
    57                           ; LIABILITY, OR TORT (INCLUDING NEGLIGENCE OR OTHERWISE) ARISING IN ANY WAY OUT OF THE U
      +                          SE OF
    58                           ; THIS SOFTWARE, EVEN IF ADVISED OF THE POSSIBILITY OF SUCH DAMAGE.
    59                           ; 
    60                           ; 
    61                           ; Code-generator required, PIC16LF1827 Definitions
    62                           ; 
    63                           ; SFR Addresses
    64  0000                     	;# 
    65  0001                     	;# 
    66  0002                     	;# 
    67  0003                     	;# 
    68  0004                     	;# 
    69  0005                     	;# 
    70  0006                     	;# 
    71  0007                     	;# 
    72  0008                     	;# 
    73  0009                     	;# 
    74  000A                     	;# 
    75  000B                     	;# 
    76  000C                     	;# 
    77  000D                     	;# 
    78  0011                     	;# 
    79  0012                     	;# 
    80  0013                     	;# 
    81  0014                     	;# 
    82  0015                     	;# 
    83  0016                     	;# 
    84  0016                     	;# 
    85  0017                     	;# 
    86  0018                     	;# 
    87  0019                     	;# 
    88  001A                     	;# 
    89  001B                     	;# 
    90  001C                     	;# 
    91  001E                     	;# 
    92  001F                     	;# 
    93  008C                     	;# 
    94  008D                     	;# 
    95  0091                     	;# 
    96  0092                     	;# 
    97  0093                     	;# 
    98  0094                     	;# 
    99  0095                     	;# 
   100  0096                     	;# 
   101  0097                     	;# 
   102  0098                     	;# 
   103  0099                     	;# 
   104  009A                     	;# 
   105  009B                     	;# 
   106  009B                     	;# 
   107  009C                     	;# 
   108  009D                     	;# 
   109  009E                     	;# 
   110  010C                     	;# 
   111  010D                     	;# 
   112  0111                     	;# 
   113  0112                     	;# 
   114  0113                     	;# 
   115  0114                     	;# 
   116  0115                     	;# 
   117  0116                     	;# 
   118  0117                     	;# 
   119  0118                     	;# 
   120  0119                     	;# 
   121  011A                     	;# 
   122  011B                     	;# 
   123  011D                     	;# 
   124  011E                     	;# 
   125  018C                     	;# 
   126  018D                     	;# 
   127  0191                     	;# 
   128  0191                     	;# 
   129  0192                     	;# 
   130  0193                     	;# 
   131  0193                     	;# 
   132  0193                     	;# 
   133  0194                     	;# 
   134  0195                     	;# 
   135  0196                     	;# 
   136  0199                     	;# 
   137  019A                     	;# 
   138  019B                     	;# 
   139  019B                     	;# 
   140  019B                     	;# 
   141  019B                     	;# 
   142  019C                     	;# 
   143  019C                     	;# 
   144  019D                     	;# 
   145  019E                     	;# 
   146  019F                     	;# 
   147  020C                     	;# 
   148  020D                     	;# 
   149  0211                     	;# 
   150  0211                     	;# 
   151  0212                     	;# 
   152  0212                     	;# 
   153  0213                     	;# 
   154  0213                     	;# 
   155  0214                     	;# 
   156  0214                     	;# 
   157  0215                     	;# 
   158  0215                     	;# 
   159  0215                     	;# 
   160  0216                     	;# 
   161  0216                     	;# 
   162  0217                     	;# 
   163  0217                     	;# 
   164  0219                     	;# 
   165  021A                     	;# 
   166  021B                     	;# 
   167  021C                     	;# 
   168  021D                     	;# 
   169  021E                     	;# 
   170  021F                     	;# 
   171  0291                     	;# 
   172  0291                     	;# 
   173  0292                     	;# 
   174  0293                     	;# 
   175  0294                     	;# 
   176  0295                     	;# 
   177  0295                     	;# 
   178  0296                     	;# 
   179  0298                     	;# 
   180  0298                     	;# 
   181  0299                     	;# 
   182  029A                     	;# 
   183  029B                     	;# 
   184  029C                     	;# 
   185  029C                     	;# 
   186  029D                     	;# 
   187  029E                     	;# 
   188  029E                     	;# 
   189  0311                     	;# 
   190  0311                     	;# 
   191  0312                     	;# 
   192  0313                     	;# 
   193  0318                     	;# 
   194  0318                     	;# 
   195  0319                     	;# 
   196  031A                     	;# 
   197  0394                     	;# 
   198  0395                     	;# 
   199  0396                     	;# 
   200  039A                     	;# 
   201  039C                     	;# 
   202  039D                     	;# 
   203  039E                     	;# 
   204  039F                     	;# 
   205  0415                     	;# 
   206  0416                     	;# 
   207  0417                     	;# 
   208  041C                     	;# 
   209  041D                     	;# 
   210  041E                     	;# 
   211  0FE4                     	;# 
   212  0FE5                     	;# 
   213  0FE6                     	;# 
   214  0FE7                     	;# 
   215  0FE8                     	;# 
   216  0FE9                     	;# 
   217  0FEA                     	;# 
   218  0FEB                     	;# 
   219  0FED                     	;# 
   220  0FEE                     	;# 
   221  0FEF                     	;# 
   222  0000                     	;# 
   223  0001                     	;# 
   224  0002                     	;# 
   225  0003                     	;# 
   226  0004                     	;# 
   227  0005                     	;# 
   228  0006                     	;# 
   229  0007                     	;# 
   230  0008                     	;# 
   231  0009                     	;# 
   232  000A                     	;# 
   233  000B                     	;# 
   234  000C                     	;# 
   235  000D                     	;# 
   236  0011                     	;# 
   237  0012                     	;# 
   238  0013                     	;# 
   239  0014                     	;# 
   240  0015                     	;# 
   241  0016                     	;# 
   242  0016                     	;# 
   243  0017                     	;# 
   244  0018                     	;# 
   245  0019                     	;# 
   246  001A                     	;# 
   247  001B                     	;# 
   248  001C                     	;# 
   249  001E                     	;# 
   250  001F                     	;# 
   251  008C                     	;# 
   252  008D                     	;# 
   253  0091                     	;# 
   254  0092                     	;# 
   255  0093                     	;# 
   256  0094                     	;# 
   257  0095                     	;# 
   258  0096                     	;# 
   259  0097                     	;# 
   260  0098                     	;# 
   261  0099                     	;# 
   262  009A                     	;# 
   263  009B                     	;# 
   264  009B                     	;# 
   265  009C                     	;# 
   266  009D                     	;# 
   267  009E                     	;# 
   268  010C                     	;# 
   269  010D                     	;# 
   270  0111                     	;# 
   271  0112                     	;# 
   272  0113                     	;# 
   273  0114                     	;# 
   274  0115                     	;# 
   275  0116                     	;# 
   276  0117                     	;# 
   277  0118                     	;# 
   278  0119                     	;# 
   279  011A                     	;# 
   280  011B                     	;# 
   281  011D                     	;# 
   282  011E                     	;# 
   283  018C                     	;# 
   284  018D                     	;# 
   285  0191                     	;# 
   286  0191                     	;# 
   287  0192                     	;# 
   288  0193                     	;# 
   289  0193                     	;# 
   290  0193                     	;# 
   291  0194                     	;# 
   292  0195                     	;# 
   293  0196                     	;# 
   294  0199                     	;# 
   295  019A                     	;# 
   296  019B                     	;# 
   297  019B                     	;# 
   298  019B                     	;# 
   299  019B                     	;# 
   300  019C                     	;# 
   301  019C                     	;# 
   302  019D                     	;# 
   303  019E                     	;# 
   304  019F                     	;# 
   305  020C                     	;# 
   306  020D                     	;# 
   307  0211                     	;# 
   308  0211                     	;# 
   309  0212                     	;# 
   310  0212                     	;# 
   311  0213                     	;# 
   312  0213                     	;# 
   313  0214                     	;# 
   314  0214                     	;# 
   315  0215                     	;# 
   316  0215                     	;# 
   317  0215                     	;# 
   318  0216                     	;# 
   319  0216                     	;# 
   320  0217                     	;# 
   321  0217                     	;# 
   322  0219                     	;# 
   323  021A                     	;# 
   324  021B                     	;# 
   325  021C                     	;# 
   326  021D                     	;# 
   327  021E                     	;# 
   328  021F                     	;# 
   329  0291                     	;# 
   330  0291                     	;# 
   331  0292                     	;# 
   332  0293                     	;# 
   333  0294                     	;# 
   334  0295                     	;# 
   335  0295                     	;# 
   336  0296                     	;# 
   337  0298                     	;# 
   338  0298                     	;# 
   339  0299                     	;# 
   340  029A                     	;# 
   341  029B                     	;# 
   342  029C                     	;# 
   343  029C                     	;# 
   344  029D                     	;# 
   345  029E                     	;# 
   346  029E                     	;# 
   347  0311                     	;# 
   348  0311                     	;# 
   349  0312                     	;# 
   350  0313                     	;# 
   351  0318                     	;# 
   352  0318                     	;# 
   353  0319                     	;# 
   354  031A                     	;# 
   355  0394                     	;# 
   356  0395                     	;# 
   357  0396                     	;# 
   358  039A                     	;# 
   359  039C                     	;# 
   360  039D                     	;# 
   361  039E                     	;# 
   362  039F                     	;# 
   363  0415                     	;# 
   364  0416                     	;# 
   365  0417                     	;# 
   366  041C                     	;# 
   367  041D                     	;# 
   368  041E                     	;# 
   369  0FE4                     	;# 
   370  0FE5                     	;# 
   371  0FE6                     	;# 
   372  0FE7                     	;# 
   373  0FE8                     	;# 
   374  0FE9                     	;# 
   375  0FEA                     	;# 
   376  0FEB                     	;# 
   377  0FED                     	;# 
   378  0FEE                     	;# 
   379  0FEF                     	;# 
   380  0000                     	;# 
   381  0001                     	;# 
   382  0002                     	;# 
   383  0003                     	;# 
   384  0004                     	;# 
   385  0005                     	;# 
   386  0006                     	;# 
   387  0007                     	;# 
   388  0008                     	;# 
   389  0009                     	;# 
   390  000A                     	;# 
   391  000B                     	;# 
   392  000C                     	;# 
   393  000D                     	;# 
   394  0011                     	;# 
   395  0012                     	;# 
   396  0013                     	;# 
   397  0014                     	;# 
   398  0015                     	;# 
   399  0016                     	;# 
   400  0016                     	;# 
   401  0017                     	;# 
   402  0018                     	;# 
   403  0019                     	;# 
   404  001A                     	;# 
   405  001B                     	;# 
   406  001C                     	;# 
   407  001E                     	;# 
   408  001F                     	;# 
   409  008C                     	;# 
   410  008D                     	;# 
   411  0091                     	;# 
   412  0092                     	;# 
   413  0093                     	;# 
   414  0094                     	;# 
   415  0095                     	;# 
   416  0096                     	;# 
   417  0097                     	;# 
   418  0098                     	;# 
   419  0099                     	;# 
   420  009A                     	;# 
   421  009B                     	;# 
   422  009B                     	;# 
   423  009C                     	;# 
   424  009D                     	;# 
   425  009E                     	;# 
   426  010C                     	;# 
   427  010D                     	;# 
   428  0111                     	;# 
   429  0112                     	;# 
   430  0113                     	;# 
   431  0114                     	;# 
   432  0115                     	;# 
   433  0116                     	;# 
   434  0117                     	;# 
   435  0118                     	;# 
   436  0119                     	;# 
   437  011A                     	;# 
   438  011B                     	;# 
   439  011D                     	;# 
   440  011E                     	;# 
   441  018C                     	;# 
   442  018D                     	;# 
   443  0191                     	;# 
   444  0191                     	;# 
   445  0192                     	;# 
   446  0193                     	;# 
   447  0193                     	;# 
   448  0193                     	;# 
   449  0194                     	;# 
   450  0195                     	;# 
   451  0196                     	;# 
   452  0199                     	;# 
   453  019A                     	;# 
   454  019B                     	;# 
   455  019B                     	;# 
   456  019B                     	;# 
   457  019B                     	;# 
   458  019C                     	;# 
   459  019C                     	;# 
   460  019D                     	;# 
   461  019E                     	;# 
   462  019F                     	;# 
   463  020C                     	;# 
   464  020D                     	;# 
   465  0211                     	;# 
   466  0211                     	;# 
   467  0212                     	;# 
   468  0212                     	;# 
   469  0213                     	;# 
   470  0213                     	;# 
   471  0214                     	;# 
   472  0214                     	;# 
   473  0215                     	;# 
   474  0215                     	;# 
   475  0215                     	;# 
   476  0216                     	;# 
   477  0216                     	;# 
   478  0217                     	;# 
   479  0217                     	;# 
   480  0219                     	;# 
   481  021A                     	;# 
   482  021B                     	;# 
   483  021C                     	;# 
   484  021D                     	;# 
   485  021E                     	;# 
   486  021F                     	;# 
   487  0291                     	;# 
   488  0291                     	;# 
   489  0292                     	;# 
   490  0293                     	;# 
   491  0294                     	;# 
   492  0295                     	;# 
   493  0295                     	;# 
   494  0296                     	;# 
   495  0298                     	;# 
   496  0298                     	;# 
   497  0299                     	;# 
   498  029A                     	;# 
   499  029B                     	;# 
   500  029C                     	;# 
   501  029C                     	;# 
   502  029D                     	;# 
   503  029E                     	;# 
   504  029E                     	;# 
   505  0311                     	;# 
   506  0311                     	;# 
   507  0312                     	;# 
   508  0313                     	;# 
   509  0318                     	;# 
   510  0318                     	;# 
   511  0319                     	;# 
   512  031A                     	;# 
   513  0394                     	;# 
   514  0395                     	;# 
   515  0396                     	;# 
   516  039A                     	;# 
   517  039C                     	;# 
   518  039D                     	;# 
   519  039E                     	;# 
   520  039F                     	;# 
   521  0415                     	;# 
   522  0416                     	;# 
   523  0417                     	;# 
   524  041C                     	;# 
   525  041D                     	;# 
   526  041E                     	;# 
   527  0FE4                     	;# 
   528  0FE5                     	;# 
   529  0FE6                     	;# 
   530  0FE7                     	;# 
   531  0FE8                     	;# 
   532  0FE9                     	;# 
   533  0FEA                     	;# 
   534  0FEB                     	;# 
   535  0FED                     	;# 
   536  0FEE                     	;# 
   537  0FEF                     	;# 
   538  0000                     	;# 
   539  0001                     	;# 
   540  0002                     	;# 
   541  0003                     	;# 
   542  0004                     	;# 
   543  0005                     	;# 
   544  0006                     	;# 
   545  0007                     	;# 
   546  0008                     	;# 
   547  0009                     	;# 
   548  000A                     	;# 
   549  000B                     	;# 
   550  000C                     	;# 
   551  000D                     	;# 
   552  0011                     	;# 
   553  0012                     	;# 
   554  0013                     	;# 
   555  0014                     	;# 
   556  0015                     	;# 
   557  0016                     	;# 
   558  0016                     	;# 
   559  0017                     	;# 
   560  0018                     	;# 
   561  0019                     	;# 
   562  001A                     	;# 
   563  001B                     	;# 
   564  001C                     	;# 
   565  001E                     	;# 
   566  001F                     	;# 
   567  008C                     	;# 
   568  008D                     	;# 
   569  0091                     	;# 
   570  0092                     	;# 
   571  0093                     	;# 
   572  0094                     	;# 
   573  0095                     	;# 
   574  0096                     	;# 
   575  0097                     	;# 
   576  0098                     	;# 
   577  0099                     	;# 
   578  009A                     	;# 
   579  009B                     	;# 
   580  009B                     	;# 
   581  009C                     	;# 
   582  009D                     	;# 
   583  009E                     	;# 
   584  010C                     	;# 
   585  010D                     	;# 
   586  0111                     	;# 
   587  0112                     	;# 
   588  0113                     	;# 
   589  0114                     	;# 
   590  0115                     	;# 
   591  0116                     	;# 
   592  0117                     	;# 
   593  0118                     	;# 
   594  0119                     	;# 
   595  011A                     	;# 
   596  011B                     	;# 
   597  011D                     	;# 
   598  011E                     	;# 
   599  018C                     	;# 
   600  018D                     	;# 
   601  0191                     	;# 
   602  0191                     	;# 
   603  0192                     	;# 
   604  0193                     	;# 
   605  0193                     	;# 
   606  0193                     	;# 
   607  0194                     	;# 
   608  0195                     	;# 
   609  0196                     	;# 
   610  0199                     	;# 
   611  019A                     	;# 
   612  019B                     	;# 
   613  019B                     	;# 
   614  019B                     	;# 
   615  019B                     	;# 
   616  019C                     	;# 
   617  019C                     	;# 
   618  019D                     	;# 
   619  019E                     	;# 
   620  019F                     	;# 
   621  020C                     	;# 
   622  020D                     	;# 
   623  0211                     	;# 
   624  0211                     	;# 
   625  0212                     	;# 
   626  0212                     	;# 
   627  0213                     	;# 
   628  0213                     	;# 
   629  0214                     	;# 
   630  0214                     	;# 
   631  0215                     	;# 
   632  0215                     	;# 
   633  0215                     	;# 
   634  0216                     	;# 
   635  0216                     	;# 
   636  0217                     	;# 
   637  0217                     	;# 
   638  0219                     	;# 
   639  021A                     	;# 
   640  021B                     	;# 
   641  021C                     	;# 
   642  021D                     	;# 
   643  021E                     	;# 
   644  021F                     	;# 
   645  0291                     	;# 
   646  0291                     	;# 
   647  0292                     	;# 
   648  0293                     	;# 
   649  0294                     	;# 
   650  0295                     	;# 
   651  0295                     	;# 
   652  0296                     	;# 
   653  0298                     	;# 
   654  0298                     	;# 
   655  0299                     	;# 
   656  029A                     	;# 
   657  029B                     	;# 
   658  029C                     	;# 
   659  029C                     	;# 
   660  029D                     	;# 
   661  029E                     	;# 
   662  029E                     	;# 
   663  0311                     	;# 
   664  0311                     	;# 
   665  0312                     	;# 
   666  0313                     	;# 
   667  0318                     	;# 
   668  0318                     	;# 
   669  0319                     	;# 
   670  031A                     	;# 
   671  0394                     	;# 
   672  0395                     	;# 
   673  0396                     	;# 
   674  039A                     	;# 
   675  039C                     	;# 
   676  039D                     	;# 
   677  039E                     	;# 
   678  039F                     	;# 
   679  0415                     	;# 
   680  0416                     	;# 
   681  0417                     	;# 
   682  041C                     	;# 
   683  041D                     	;# 
   684  041E                     	;# 
   685  0FE4                     	;# 
   686  0FE5                     	;# 
   687  0FE6                     	;# 
   688  0FE7                     	;# 
   689  0FE8                     	;# 
   690  0FE9                     	;# 
   691  0FEA                     	;# 
   692  0FEB                     	;# 
   693  0FED                     	;# 
   694  0FEE                     	;# 
   695  0FEF                     	;# 
   696  0000                     	;# 
   697  0001                     	;# 
   698  0002                     	;# 
   699  0003                     	;# 
   700  0004                     	;# 
   701  0005                     	;# 
   702  0006                     	;# 
   703  0007                     	;# 
   704  0008                     	;# 
   705  0009                     	;# 
   706  000A                     	;# 
   707  000B                     	;# 
   708  000C                     	;# 
   709  000D                     	;# 
   710  0011                     	;# 
   711  0012                     	;# 
   712  0013                     	;# 
   713  0014                     	;# 
   714  0015                     	;# 
   715  0016                     	;# 
   716  0016                     	;# 
   717  0017                     	;# 
   718  0018                     	;# 
   719  0019                     	;# 
   720  001A                     	;# 
   721  001B                     	;# 
   722  001C                     	;# 
   723  001E                     	;# 
   724  001F                     	;# 
   725  008C                     	;# 
   726  008D                     	;# 
   727  0091                     	;# 
   728  0092                     	;# 
   729  0093                     	;# 
   730  0094                     	;# 
   731  0095                     	;# 
   732  0096                     	;# 
   733  0097                     	;# 
   734  0098                     	;# 
   735  0099                     	;# 
   736  009A                     	;# 
   737  009B                     	;# 
   738  009B                     	;# 
   739  009C                     	;# 
   740  009D                     	;# 
   741  009E                     	;# 
   742  010C                     	;# 
   743  010D                     	;# 
   744  0111                     	;# 
   745  0112                     	;# 
   746  0113                     	;# 
   747  0114                     	;# 
   748  0115                     	;# 
   749  0116                     	;# 
   750  0117                     	;# 
   751  0118                     	;# 
   752  0119                     	;# 
   753  011A                     	;# 
   754  011B                     	;# 
   755  011D                     	;# 
   756  011E                     	;# 
   757  018C                     	;# 
   758  018D                     	;# 
   759  0191                     	;# 
   760  0191                     	;# 
   761  0192                     	;# 
   762  0193                     	;# 
   763  0193                     	;# 
   764  0193                     	;# 
   765  0194                     	;# 
   766  0195                     	;# 
   767  0196                     	;# 
   768  0199                     	;# 
   769  019A                     	;# 
   770  019B                     	;# 
   771  019B                     	;# 
   772  019B                     	;# 
   773  019B                     	;# 
   774  019C                     	;# 
   775  019C                     	;# 
   776  019D                     	;# 
   777  019E                     	;# 
   778  019F                     	;# 
   779  020C                     	;# 
   780  020D                     	;# 
   781  0211                     	;# 
   782  0211                     	;# 
   783  0212                     	;# 
   784  0212                     	;# 
   785  0213                     	;# 
   786  0213                     	;# 
   787  0214                     	;# 
   788  0214                     	;# 
   789  0215                     	;# 
   790  0215                     	;# 
   791  0215                     	;# 
   792  0216                     	;# 
   793  0216                     	;# 
   794  0217                     	;# 
   795  0217                     	;# 
   796  0219                     	;# 
   797  021A                     	;# 
   798  021B                     	;# 
   799  021C                     	;# 
   800  021D                     	;# 
   801  021E                     	;# 
   802  021F                     	;# 
   803  0291                     	;# 
   804  0291                     	;# 
   805  0292                     	;# 
   806  0293                     	;# 
   807  0294                     	;# 
   808  0295                     	;# 
   809  0295                     	;# 
   810  0296                     	;# 
   811  0298                     	;# 
   812  0298                     	;# 
   813  0299                     	;# 
   814  029A                     	;# 
   815  029B                     	;# 
   816  029C                     	;# 
   817  029C                     	;# 
   818  029D                     	;# 
   819  029E                     	;# 
   820  029E                     	;# 
   821  0311                     	;# 
   822  0311                     	;# 
   823  0312                     	;# 
   824  0313                     	;# 
   825  0318                     	;# 
   826  0318                     	;# 
   827  0319                     	;# 
   828  031A                     	;# 
   829  0394                     	;# 
   830  0395                     	;# 
   831  0396                     	;# 
   832  039A                     	;# 
   833  039C                     	;# 
   834  039D                     	;# 
   835  039E                     	;# 
   836  039F                     	;# 
   837  0415                     	;# 
   838  0416                     	;# 
   839  0417                     	;# 
   840  041C                     	;# 
   841  041D                     	;# 
   842  041E                     	;# 
   843  0FE4                     	;# 
   844  0FE5                     	;# 
   845  0FE6                     	;# 
   846  0FE7                     	;# 
   847  0FE8                     	;# 
   848  0FE9                     	;# 
   849  0FEA                     	;# 
   850  0FEB                     	;# 
   851  0FED                     	;# 
   852  0FEE                     	;# 
   853  0FEF                     	;# 
   854  0000                     	;# 
   855  0001                     	;# 
   856  0002                     	;# 
   857  0003                     	;# 
   858  0004                     	;# 
   859  0005                     	;# 
   860  0006                     	;# 
   861  0007                     	;# 
   862  0008                     	;# 
   863  0009                     	;# 
   864  000A                     	;# 
   865  000B                     	;# 
   866  000C                     	;# 
   867  000D                     	;# 
   868  0011                     	;# 
   869  0012                     	;# 
   870  0013                     	;# 
   871  0014                     	;# 
   872  0015                     	;# 
   873  0016                     	;# 
   874  0016                     	;# 
   875  0017                     	;# 
   876  0018                     	;# 
   877  0019                     	;# 
   878  001A                     	;# 
   879  001B                     	;# 
   880  001C                     	;# 
   881  001E                     	;# 
   882  001F                     	;# 
   883  008C                     	;# 
   884  008D                     	;# 
   885  0091                     	;# 
   886  0092                     	;# 
   887  0093                     	;# 
   888  0094                     	;# 
   889  0095                     	;# 
   890  0096                     	;# 
   891  0097                     	;# 
   892  0098                     	;# 
   893  0099                     	;# 
   894  009A                     	;# 
   895  009B                     	;# 
   896  009B                     	;# 
   897  009C                     	;# 
   898  009D                     	;# 
   899  009E                     	;# 
   900  010C                     	;# 
   901  010D                     	;# 
   902  0111                     	;# 
   903  0112                     	;# 
   904  0113                     	;# 
   905  0114                     	;# 
   906  0115                     	;# 
   907  0116                     	;# 
   908  0117                     	;# 
   909  0118                     	;# 
   910  0119                     	;# 
   911  011A                     	;# 
   912  011B                     	;# 
   913  011D                     	;# 
   914  011E                     	;# 
   915  018C                     	;# 
   916  018D                     	;# 
   917  0191                     	;# 
   918  0191                     	;# 
   919  0192                     	;# 
   920  0193                     	;# 
   921  0193                     	;# 
   922  0193                     	;# 
   923  0194                     	;# 
   924  0195                     	;# 
   925  0196                     	;# 
   926  0199                     	;# 
   927  019A                     	;# 
   928  019B                     	;# 
   929  019B                     	;# 
   930  019B                     	;# 
   931  019B                     	;# 
   932  019C                     	;# 
   933  019C                     	;# 
   934  019D                     	;# 
   935  019E                     	;# 
   936  019F                     	;# 
   937  020C                     	;# 
   938  020D                     	;# 
   939  0211                     	;# 
   940  0211                     	;# 
   941  0212                     	;# 
   942  0212                     	;# 
   943  0213                     	;# 
   944  0213                     	;# 
   945  0214                     	;# 
   946  0214                     	;# 
   947  0215                     	;# 
   948  0215                     	;# 
   949  0215                     	;# 
   950  0216                     	;# 
   951  0216                     	;# 
   952  0217                     	;# 
   953  0217                     	;# 
   954  0219                     	;# 
   955  021A                     	;# 
   956  021B                     	;# 
   957  021C                     	;# 
   958  021D                     	;# 
   959  021E                     	;# 
   960  021F                     	;# 
   961  0291                     	;# 
   962  0291                     	;# 
   963  0292                     	;# 
   964  0293                     	;# 
   965  0294                     	;# 
   966  0295                     	;# 
   967  0295                     	;# 
   968  0296                     	;# 
   969  0298                     	;# 
   970  0298                     	;# 
   971  0299                     	;# 
   972  029A                     	;# 
   973  029B                     	;# 
   974  029C                     	;# 
   975  029C                     	;# 
   976  029D                     	;# 
   977  029E                     	;# 
   978  029E                     	;# 
   979  0311                     	;# 
   980  0311                     	;# 
   981  0312                     	;# 
   982  0313                     	;# 
   983  0318                     	;# 
   984  0318                     	;# 
   985  0319                     	;# 
   986  031A                     	;# 
   987  0394                     	;# 
   988  0395                     	;# 
   989  0396                     	;# 
   990  039A                     	;# 
   991  039C                     	;# 
   992  039D                     	;# 
   993  039E                     	;# 
   994  039F                     	;# 
   995  0415                     	;# 
   996  0416                     	;# 
   997  0417                     	;# 
   998  041C                     	;# 
   999  041D                     	;# 
  1000  041E                     	;# 
  1001  0FE4                     	;# 
  1002  0FE5                     	;# 
  1003  0FE6                     	;# 
  1004  0FE7                     	;# 
  1005  0FE8                     	;# 
  1006  0FE9                     	;# 
  1007  0FEA                     	;# 
  1008  0FEB                     	;# 
  1009  0FED                     	;# 
  1010  0FEE                     	;# 
  1011  0FEF                     	;# 
  1012  0000                     	;# 
  1013  0001                     	;# 
  1014  0002                     	;# 
  1015  0003                     	;# 
  1016  0004                     	;# 
  1017  0005                     	;# 
  1018  0006                     	;# 
  1019  0007                     	;# 
  1020  0008                     	;# 
  1021  0009                     	;# 
  1022  000A                     	;# 
  1023  000B                     	;# 
  1024  000C                     	;# 
  1025  000D                     	;# 
  1026  0011                     	;# 
  1027  0012                     	;# 
  1028  0013                     	;# 
  1029  0014                     	;# 
  1030  0015                     	;# 
  1031  0016                     	;# 
  1032  0016                     	;# 
  1033  0017                     	;# 
  1034  0018                     	;# 
  1035  0019                     	;# 
  1036  001A                     	;# 
  1037  001B                     	;# 
  1038  001C                     	;# 
  1039  001E                     	;# 
  1040  001F                     	;# 
  1041  008C                     	;# 
  1042  008D                     	;# 
  1043  0091                     	;# 
  1044  0092                     	;# 
  1045  0093                     	;# 
  1046  0094                     	;# 
  1047  0095                     	;# 
  1048  0096                     	;# 
  1049  0097                     	;# 
  1050  0098                     	;# 
  1051  0099                     	;# 
  1052  009A                     	;# 
  1053  009B                     	;# 
  1054  009B                     	;# 
  1055  009C                     	;# 
  1056  009D                     	;# 
  1057  009E                     	;# 
  1058  010C                     	;# 
  1059  010D                     	;# 
  1060  0111                     	;# 
  1061  0112                     	;# 
  1062  0113                     	;# 
  1063  0114                     	;# 
  1064  0115                     	;# 
  1065  0116                     	;# 
  1066  0117                     	;# 
  1067  0118                     	;# 
  1068  0119                     	;# 
  1069  011A                     	;# 
  1070  011B                     	;# 
  1071  011D                     	;# 
  1072  011E                     	;# 
  1073  018C                     	;# 
  1074  018D                     	;# 
  1075  0191                     	;# 
  1076  0191                     	;# 
  1077  0192                     	;# 
  1078  0193                     	;# 
  1079  0193                     	;# 
  1080  0193                     	;# 
  1081  0194                     	;# 
  1082  0195                     	;# 
  1083  0196                     	;# 
  1084  0199                     	;# 
  1085  019A                     	;# 
  1086  019B                     	;# 
  1087  019B                     	;# 
  1088  019B                     	;# 
  1089  019B                     	;# 
  1090  019C                     	;# 
  1091  019C                     	;# 
  1092  019D                     	;# 
  1093  019E                     	;# 
  1094  019F                     	;# 
  1095  020C                     	;# 
  1096  020D                     	;# 
  1097  0211                     	;# 
  1098  0211                     	;# 
  1099  0212                     	;# 
  1100  0212                     	;# 
  1101  0213                     	;# 
  1102  0213                     	;# 
  1103  0214                     	;# 
  1104  0214                     	;# 
  1105  0215                     	;# 
  1106  0215                     	;# 
  1107  0215                     	;# 
  1108  0216                     	;# 
  1109  0216                     	;# 
  1110  0217                     	;# 
  1111  0217                     	;# 
  1112  0219                     	;# 
  1113  021A                     	;# 
  1114  021B                     	;# 
  1115  021C                     	;# 
  1116  021D                     	;# 
  1117  021E                     	;# 
  1118  021F                     	;# 
  1119  0291                     	;# 
  1120  0291                     	;# 
  1121  0292                     	;# 
  1122  0293                     	;# 
  1123  0294                     	;# 
  1124  0295                     	;# 
  1125  0295                     	;# 
  1126  0296                     	;# 
  1127  0298                     	;# 
  1128  0298                     	;# 
  1129  0299                     	;# 
  1130  029A                     	;# 
  1131  029B                     	;# 
  1132  029C                     	;# 
  1133  029C                     	;# 
  1134  029D                     	;# 
  1135  029E                     	;# 
  1136  029E                     	;# 
  1137  0311                     	;# 
  1138  0311                     	;# 
  1139  0312                     	;# 
  1140  0313                     	;# 
  1141  0318                     	;# 
  1142  0318                     	;# 
  1143  0319                     	;# 
  1144  031A                     	;# 
  1145  0394                     	;# 
  1146  0395                     	;# 
  1147  0396                     	;# 
  1148  039A                     	;# 
  1149  039C                     	;# 
  1150  039D                     	;# 
  1151  039E                     	;# 
  1152  039F                     	;# 
  1153  0415                     	;# 
  1154  0416                     	;# 
  1155  0417                     	;# 
  1156  041C                     	;# 
  1157  041D                     	;# 
  1158  041E                     	;# 
  1159  0FE4                     	;# 
  1160  0FE5                     	;# 
  1161  0FE6                     	;# 
  1162  0FE7                     	;# 
  1163  0FE8                     	;# 
  1164  0FE9                     	;# 
  1165  0FEA                     	;# 
  1166  0FEB                     	;# 
  1167  0FED                     	;# 
  1168  0FEE                     	;# 
  1169  0FEF                     	;# 
  1170                           
  1171                           	psect	stringtext1
  1172  015E                     __pstringtext1:
  1173  015E                     main@maxCounter:
  1174  015E  3478               	retlw	120
  1175  015F  3400               	retlw	0
  1176  0160                     __end_ofmain@maxCounter:
  1177                           
  1178                           	psect	nvBANK0
  1179  0020                     __pnvBANK0:
  1180  0020                     _IOCBF5_InterruptHandler:
  1181  0020                     	ds	2
  1182  000C                     _PORTAbits	set	12
  1183  000B                     _INTCONbits	set	11
  1184  009D                     _ADCON0bits	set	157
  1185  009D                     _ADCON0	set	157
  1186  009C                     _ADRESH	set	156
  1187  009B                     _ADRESL	set	155
  1188  009E                     _ADCON1	set	158
  1189  0095                     _OPTION_REGbits	set	149
  1190  008D                     _TRISB	set	141
  1191  008C                     _TRISA	set	140
  1192  0097                     _WDTCON	set	151
  1193  0098                     _OSCTUNE	set	152
  1194  0099                     _OSCCON	set	153
  1195  010C                     _LATAbits	set	268
  1196  010D                     _LATBbits	set	269
  1197  0117                     _FVRCONbits	set	279
  1198  0117                     _FVRCON	set	279
  1199  011E                     _APFCON1	set	286
  1200  011D                     _APFCON0	set	285
  1201  010D                     _LATB	set	269
  1202  010C                     _LATA	set	268
  1203  0116                     _BORCON	set	278
  1204  018C                     _ANSELA	set	396
  1205  018D                     _ANSELB	set	397
  1206  020C                     _WPUA	set	524
  1207  020D                     _WPUB	set	525
  1208  0394                     _IOCBPbits	set	916
  1209  0395                     _IOCBNbits	set	917
  1210  0396                     _IOCBFbits	set	918
  1211                           
  1212                           	psect	cinit
  1213  0015                     start_initialization:	
  1214                           ; #config settings
  1215                           
  1216  0015                     __initialization:
  1217                           
  1218                           ; Clear objects allocated to COMMON
  1219  0015  01FC               	clrf	__pbssCOMMON& (0+127)
  1220                           
  1221                           ; Clear objects allocated to BANK0
  1222  0016  0020               	movlb	0	; select bank0
  1223  0017  01A2               	clrf	__pbssBANK0& (0+127)
  1224  0018  01A3               	clrf	(__pbssBANK0+1)& (0+127)
  1225  0019                     end_of_initialization:	
  1226                           ;End of C runtime variable initialization code
  1227                           
  1228  0019                     __end_of__initialization:
  1229  0019  107E               	bcf	int$flags,0	;clear compiler interrupt flag (level 1)
  1230  001A  0020               	movlb	0
  1231  001B  3180  2871         	ljmp	_main	;jump to C main() function
  1232                           
  1233                           	psect	bssCOMMON
  1234  007C                     __pbssCOMMON:
  1235  007C                     _state:
  1236  007C                     	ds	1
  1237                           
  1238                           	psect	bssBANK0
  1239  0022                     __pbssBANK0:
  1240  0022                     _ADC_InterruptHandler:
  1241  0022                     	ds	2
  1242                           
  1243                           	psect	cstackCOMMON
  1244  0070                     __pcstackCOMMON:
  1245  0070                     ?_PIN_MANAGER_Initialize:
  1246  0070                     ?_OSCILLATOR_Initialize:	
  1247                           ; 1 bytes @ 0x0
  1248                           
  1249  0070                     ??_OSCILLATOR_Initialize:	
  1250                           ; 1 bytes @ 0x0
  1251                           
  1252  0070                     ?_WDT_Initialize:	
  1253                           ; 1 bytes @ 0x0
  1254                           
  1255  0070                     ??_WDT_Initialize:	
  1256                           ; 1 bytes @ 0x0
  1257                           
  1258  0070                     ?_FVR_Initialize:	
  1259                           ; 1 bytes @ 0x0
  1260                           
  1261  0070                     ??_FVR_Initialize:	
  1262                           ; 1 bytes @ 0x0
  1263                           
  1264  0070                     ?_ADC_Initialize:	
  1265                           ; 1 bytes @ 0x0
  1266                           
  1267  0070                     ??_ADC_Initialize:	
  1268                           ; 1 bytes @ 0x0
  1269                           
  1270  0070                     ?_IOCBF5_SetInterruptHandler:	
  1271                           ; 1 bytes @ 0x0
  1272                           
  1273  0070                     ?_IOCBF5_DefaultInterruptHandler:	
  1274                           ; 1 bytes @ 0x0
  1275                           
  1276  0070                     ??_IOCBF5_DefaultInterruptHandler:	
  1277                           ; 1 bytes @ 0x0
  1278                           
  1279  0070                     ?_IOCBF5_ISR:	
  1280                           ; 1 bytes @ 0x0
  1281                           
  1282  0070                     ??_IOCBF5_ISR:	
  1283                           ; 1 bytes @ 0x0
  1284                           
  1285  0070                     ?_SYSTEM_Initialize:	
  1286                           ; 1 bytes @ 0x0
  1287                           
  1288  0070                     ?_PIN_MANAGER_IOC:	
  1289                           ; 1 bytes @ 0x0
  1290                           
  1291  0070                     ??_PIN_MANAGER_IOC:	
  1292                           ; 1 bytes @ 0x0
  1293                           
  1294  0070                     ?_INTERRUPT_InterruptManager:	
  1295                           ; 1 bytes @ 0x0
  1296                           
  1297  0070                     ??_INTERRUPT_InterruptManager:	
  1298                           ; 1 bytes @ 0x0
  1299                           
  1300  0070                     ?_ToggleLamp:	
  1301                           ; 1 bytes @ 0x0
  1302                           
  1303  0070                     ??_ToggleLamp:	
  1304                           ; 1 bytes @ 0x0
  1305                           
  1306  0070                     ?_LampOff:	
  1307                           ; 1 bytes @ 0x0
  1308                           
  1309  0070                     ??_LampOff:	
  1310                           ; 1 bytes @ 0x0
  1311                           
  1312  0070                     ?_VTStateChanged:	
  1313                           ; 1 bytes @ 0x0
  1314                           
  1315  0070                     ??_VTStateChanged:	
  1316                           ; 1 bytes @ 0x0
  1317                           
  1318  0070                     ?_GetBatteryLevel:	
  1319                           ; 1 bytes @ 0x0
  1320                           
  1321  0070                     ?_main:	
  1322                           ; 1 bytes @ 0x0
  1323                           
  1324  0070                     ?_ADC_GetConversion:	
  1325                           ; 1 bytes @ 0x0
  1326                           
  1327  0070                     IOCBF5_SetInterruptHandler@InterruptHandler:	
  1328                           ; 2 bytes @ 0x0
  1329                           
  1330                           
  1331                           ; 2 bytes @ 0x0
  1332  0070                     	ds	2
  1333  0072                     ??_PIN_MANAGER_Initialize:
  1334  0072                     ??_IOCBF5_SetInterruptHandler:	
  1335                           ; 1 bytes @ 0x2
  1336                           
  1337  0072                     ??_SYSTEM_Initialize:	
  1338                           ; 1 bytes @ 0x2
  1339                           
  1340  0072                     ??_ADC_GetConversion:	
  1341                           ; 1 bytes @ 0x2
  1342                           
  1343                           
  1344                           ; 1 bytes @ 0x2
  1345  0072                     	ds	1
  1346  0073                     ADC_GetConversion@channel:
  1347                           
  1348                           ; 1 bytes @ 0x3
  1349  0073                     	ds	1
  1350  0074                     ??_GetBatteryLevel:
  1351                           
  1352                           ; 1 bytes @ 0x4
  1353  0074                     	ds	2
  1354  0076                     GetBatteryLevel@ledval:
  1355                           
  1356                           ; 1 bytes @ 0x6
  1357  0076                     	ds	1
  1358  0077                     GetBatteryLevel@val:
  1359                           
  1360                           ; 2 bytes @ 0x7
  1361  0077                     	ds	2
  1362  0079                     ??_main:
  1363                           
  1364                           ; 1 bytes @ 0x9
  1365  0079                     	ds	1
  1366  007A                     main@counter:
  1367                           
  1368                           ; 2 bytes @ 0xA
  1369  007A                     	ds	2
  1370                           
  1371                           	psect	maintext
  1372  0071                     __pmaintext:	
  1373 ;;
  1374 ;;Main: autosize = 0, tempsize = 1, incstack = 0, save=0
  1375 ;;
  1376 ;; *************** function _main *****************
  1377 ;; Defined at:
  1378 ;;		line 122 in file "main.c"
  1379 ;; Parameters:    Size  Location     Type
  1380 ;;		None
  1381 ;; Auto vars:     Size  Location     Type
  1382 ;;  counter         2   10[COMMON] unsigned short 
  1383 ;; Return value:  Size  Location     Type
  1384 ;;                  1    wreg      void 
  1385 ;; Registers used:
  1386 ;;		wreg, status,2, status,0, pclath, cstack
  1387 ;; Tracked objects:
  1388 ;;		On entry : B1F/0
  1389 ;;		On exit  : 0/0
  1390 ;;		Unchanged: 0/0
  1391 ;; Data sizes:     COMMON   BANK0   BANK1   BANK2   BANK3   BANK4
  1392 ;;      Params:         0       0       0       0       0       0
  1393 ;;      Locals:         2       0       0       0       0       0
  1394 ;;      Temps:          1       0       0       0       0       0
  1395 ;;      Totals:         3       0       0       0       0       0
  1396 ;;Total ram usage:        3 bytes
  1397 ;; Hardware stack levels required when called:    8
  1398 ;; This function calls:
  1399 ;;		_GetBatteryLevel
  1400 ;;		_IOCBF5_SetInterruptHandler
  1401 ;;		_SYSTEM_Initialize
  1402 ;; This function is called by:
  1403 ;;		Startup code after reset
  1404 ;; This function uses a non-reentrant model
  1405 ;;
  1406                           
  1407                           
  1408                           ;psect for function _main
  1409  0071                     _main:
  1410  0071                     l1092:	
  1411                           ;incstack = 0
  1412                           ; Regs used in _main: [wreg+status,2+status,0+pclath+cstack]
  1413                           
  1414                           
  1415                           ;main.c: 125:     SYSTEM_Initialize();
  1416  0071  3181  2116  3180   	fcall	_SYSTEM_Initialize
  1417  0074                     l1094:
  1418  0074  0022               	movlb	2	; select bank2
  1419  0075  108D               	bcf	13,1	;volatile
  1420  0076                     l1096:
  1421  0076  100D               	bcf	13,0	;volatile
  1422  0077                     l1098:
  1423                           
  1424                           ;main.c: 132:     _delay((unsigned long)((2000)*(31000/4000.0)));
  1425  0077  3015               	movlw	21
  1426  0078  00F9               	movwf	??_main
  1427  0079  3020               	movlw	32
  1428  007A                     u397:
  1429  007A  0B89               	decfsz	9,f
  1430  007B  287A               	goto	u397
  1431  007C  0BF9               	decfsz	??_main,f
  1432  007D  287A               	goto	u397
  1433  007E                     l1100:
  1434  007E  0022               	movlb	2	; select bank2
  1435  007F  148D               	bsf	13,1	;volatile
  1436  0080                     l1102:
  1437  0080  140D               	bsf	13,0	;volatile
  1438  0081                     l1104:
  1439                           
  1440                           ;main.c: 138:     IOCBF5_SetInterruptHandler(VTStateChanged);
  1441  0081  30CA               	movlw	low _VTStateChanged
  1442  0082  00F0               	movwf	IOCBF5_SetInterruptHandler@InterruptHandler
  1443  0083  3000               	movlw	high _VTStateChanged
  1444  0084  00F1               	movwf	IOCBF5_SetInterruptHandler@InterruptHandler+1
  1445  0085  3181  2146  3180   	fcall	_IOCBF5_SetInterruptHandler
  1446  0088                     l1106:
  1447                           
  1448                           ;main.c: 141:     (INTCONbits.GIE = 1);
  1449  0088  178B               	bsf	11,7	;volatile
  1450  0089                     l1108:
  1451                           
  1452                           ;main.c: 143:     (INTCONbits.PEIE = 1);
  1453  0089  170B               	bsf	11,6	;volatile
  1454  008A                     l1110:
  1455                           
  1456                           ;main.c: 145:     GetBatteryLevel();
  1457  008A  3180  201D  3180   	fcall	_GetBatteryLevel
  1458  008D                     l1112:
  1459                           
  1460                           ;main.c: 147:     uint16_t counter = 0;
  1461  008D  01FA               	clrf	main@counter
  1462  008E  01FB               	clrf	main@counter+1
  1463  008F                     l1114:
  1464                           
  1465                           ;main.c: 150:     {;main.c: 152:         _delay((unsigned long)((1000)*(31000/4000.0)));
  1466  008F  300B               	movlw	11
  1467  0090  00F9               	movwf	??_main
  1468  0091  300F               	movlw	15
  1469  0092                     u407:
  1470  0092  0B89               	decfsz	9,f
  1471  0093  2892               	goto	u407
  1472  0094  0BF9               	decfsz	??_main,f
  1473  0095  2892               	goto	u407
  1474  0096  0000               	nop
  1475  0097                     l1116:
  1476                           
  1477                           ;main.c: 153:         if(++counter >= maxCounter) {
  1478  0097  3001               	movlw	1
  1479  0098  07FA               	addwf	main@counter,f
  1480  0099  3000               	movlw	0
  1481  009A  3DFB               	addwfc	main@counter+1,f
  1482  009B  3000               	movlw	0
  1483  009C  027B               	subwf	main@counter+1,w
  1484  009D  3078               	movlw	120
  1485  009E  1903               	skipnz
  1486  009F  027A               	subwf	main@counter,w
  1487  00A0  1C03               	skipc
  1488  00A1  28A3               	goto	u381
  1489  00A2  28A4               	goto	u380
  1490  00A3                     u381:
  1491  00A3  288F               	goto	l1114
  1492  00A4                     u380:
  1493  00A4  288A               	goto	l1110
  1494  00A5  3180  2813         	ljmp	start
  1495  00A7                     __end_of_main:
  1496                           
  1497                           	psect	text1
  1498  0116                     __ptext1:	
  1499 ;; *************** function _SYSTEM_Initialize *****************
  1500 ;; Defined at:
  1501 ;;		line 50 in file "mcc_generated_files/mcc.c"
  1502 ;; Parameters:    Size  Location     Type
  1503 ;;		None
  1504 ;; Auto vars:     Size  Location     Type
  1505 ;;		None
  1506 ;; Return value:  Size  Location     Type
  1507 ;;                  1    wreg      void 
  1508 ;; Registers used:
  1509 ;;		wreg, status,2, status,0, pclath, cstack
  1510 ;; Tracked objects:
  1511 ;;		On entry : 0/0
  1512 ;;		On exit  : 0/0
  1513 ;;		Unchanged: 0/0
  1514 ;; Data sizes:     COMMON   BANK0   BANK1   BANK2   BANK3   BANK4
  1515 ;;      Params:         0       0       0       0       0       0
  1516 ;;      Locals:         0       0       0       0       0       0
  1517 ;;      Temps:          0       0       0       0       0       0
  1518 ;;      Totals:         0       0       0       0       0       0
  1519 ;;Total ram usage:        0 bytes
  1520 ;; Hardware stack levels used:    1
  1521 ;; Hardware stack levels required when called:    7
  1522 ;; This function calls:
  1523 ;;		_ADC_Initialize
  1524 ;;		_FVR_Initialize
  1525 ;;		_OSCILLATOR_Initialize
  1526 ;;		_PIN_MANAGER_Initialize
  1527 ;;		_WDT_Initialize
  1528 ;; This function is called by:
  1529 ;;		_main
  1530 ;; This function uses a non-reentrant model
  1531 ;;
  1532                           
  1533                           
  1534                           ;psect for function _SYSTEM_Initialize
  1535  0116                     _SYSTEM_Initialize:
  1536  0116                     l1050:	
  1537                           ;incstack = 0
  1538                           ; Regs used in _SYSTEM_Initialize: [wreg+status,2+status,0+pclath+cstack]
  1539                           
  1540                           
  1541                           ;mcc_generated_files/mcc.c: 53:     PIN_MANAGER_Initialize();
  1542  0116  3180  20A7  3181   	fcall	_PIN_MANAGER_Initialize
  1543  0119                     l1052:
  1544                           
  1545                           ;mcc_generated_files/mcc.c: 54:     OSCILLATOR_Initialize();
  1546  0119  3181  214C  3181   	fcall	_OSCILLATOR_Initialize
  1547  011C                     l1054:
  1548                           
  1549                           ;mcc_generated_files/mcc.c: 55:     WDT_Initialize();
  1550  011C  3181  2152  3181   	fcall	_WDT_Initialize
  1551  011F                     l1056:
  1552                           
  1553                           ;mcc_generated_files/mcc.c: 56:     FVR_Initialize();
  1554  011F  3181  2156  3181   	fcall	_FVR_Initialize
  1555  0122                     l1058:
  1556                           
  1557                           ;mcc_generated_files/mcc.c: 57:     ADC_Initialize();
  1558  0122  3181  213E  3181   	fcall	_ADC_Initialize
  1559  0125                     l21:
  1560  0125  0008               	return
  1561  0126                     __end_of_SYSTEM_Initialize:
  1562                           
  1563                           	psect	text2
  1564  0152                     __ptext2:	
  1565 ;; *************** function _WDT_Initialize *****************
  1566 ;; Defined at:
  1567 ;;		line 70 in file "mcc_generated_files/mcc.c"
  1568 ;; Parameters:    Size  Location     Type
  1569 ;;		None
  1570 ;; Auto vars:     Size  Location     Type
  1571 ;;		None
  1572 ;; Return value:  Size  Location     Type
  1573 ;;                  1    wreg      void 
  1574 ;; Registers used:
  1575 ;;		wreg
  1576 ;; Tracked objects:
  1577 ;;		On entry : 0/0
  1578 ;;		On exit  : 0/0
  1579 ;;		Unchanged: 0/0
  1580 ;; Data sizes:     COMMON   BANK0   BANK1   BANK2   BANK3   BANK4
  1581 ;;      Params:         0       0       0       0       0       0
  1582 ;;      Locals:         0       0       0       0       0       0
  1583 ;;      Temps:          0       0       0       0       0       0
  1584 ;;      Totals:         0       0       0       0       0       0
  1585 ;;Total ram usage:        0 bytes
  1586 ;; Hardware stack levels used:    1
  1587 ;; Hardware stack levels required when called:    5
  1588 ;; This function calls:
  1589 ;;		Nothing
  1590 ;; This function is called by:
  1591 ;;		_SYSTEM_Initialize
  1592 ;; This function uses a non-reentrant model
  1593 ;;
  1594                           
  1595                           
  1596                           ;psect for function _WDT_Initialize
  1597  0152                     _WDT_Initialize:
  1598  0152                     l872:	
  1599                           ;incstack = 0
  1600                           ; Regs used in _WDT_Initialize: [wreg]
  1601                           
  1602                           
  1603                           ;mcc_generated_files/mcc.c: 73:     WDTCON = 0x16;
  1604  0152  3016               	movlw	22
  1605  0153  0021               	movlb	1	; select bank1
  1606  0154  0097               	movwf	23	;volatile
  1607  0155                     l27:
  1608  0155  0008               	return
  1609  0156                     __end_of_WDT_Initialize:
  1610                           
  1611                           	psect	text3
  1612  00A7                     __ptext3:	
  1613 ;; *************** function _PIN_MANAGER_Initialize *****************
  1614 ;; Defined at:
  1615 ;;		line 57 in file "mcc_generated_files/pin_manager.c"
  1616 ;; Parameters:    Size  Location     Type
  1617 ;;		None
  1618 ;; Auto vars:     Size  Location     Type
  1619 ;;		None
  1620 ;; Return value:  Size  Location     Type
  1621 ;;                  1    wreg      void 
  1622 ;; Registers used:
  1623 ;;		wreg, status,2, status,0, pclath, cstack
  1624 ;; Tracked objects:
  1625 ;;		On entry : 0/0
  1626 ;;		On exit  : 0/0
  1627 ;;		Unchanged: 0/0
  1628 ;; Data sizes:     COMMON   BANK0   BANK1   BANK2   BANK3   BANK4
  1629 ;;      Params:         0       0       0       0       0       0
  1630 ;;      Locals:         0       0       0       0       0       0
  1631 ;;      Temps:          0       0       0       0       0       0
  1632 ;;      Totals:         0       0       0       0       0       0
  1633 ;;Total ram usage:        0 bytes
  1634 ;; Hardware stack levels used:    1
  1635 ;; Hardware stack levels required when called:    6
  1636 ;; This function calls:
  1637 ;;		_IOCBF5_SetInterruptHandler
  1638 ;; This function is called by:
  1639 ;;		_SYSTEM_Initialize
  1640 ;; This function uses a non-reentrant model
  1641 ;;
  1642                           
  1643                           
  1644                           ;psect for function _PIN_MANAGER_Initialize
  1645  00A7                     _PIN_MANAGER_Initialize:
  1646  00A7                     l1008:	
  1647                           ;incstack = 0
  1648                           ; Regs used in _PIN_MANAGER_Initialize: [wreg+status,2+status,0+pclath+cstack]
  1649                           
  1650                           
  1651                           ;mcc_generated_files/pin_manager.c: 62:     LATA = 0x0C;
  1652  00A7  300C               	movlw	12
  1653  00A8  0022               	movlb	2	; select bank2
  1654  00A9  008C               	movwf	12	;volatile
  1655                           
  1656                           ;mcc_generated_files/pin_manager.c: 63:     LATB = 0x03;
  1657  00AA  3003               	movlw	3
  1658  00AB  008D               	movwf	13	;volatile
  1659                           
  1660                           ;mcc_generated_files/pin_manager.c: 68:     TRISA = 0xF3;
  1661  00AC  30F3               	movlw	243
  1662  00AD  0021               	movlb	1	; select bank1
  1663  00AE  008C               	movwf	12	;volatile
  1664                           
  1665                           ;mcc_generated_files/pin_manager.c: 69:     TRISB = 0xF4;
  1666  00AF  30F4               	movlw	244
  1667  00B0  008D               	movwf	13	;volatile
  1668                           
  1669                           ;mcc_generated_files/pin_manager.c: 74:     ANSELB = 0x04;
  1670  00B1  3004               	movlw	4
  1671  00B2  0023               	movlb	3	; select bank3
  1672  00B3  008D               	movwf	13	;volatile
  1673  00B4                     l1010:
  1674                           
  1675                           ;mcc_generated_files/pin_manager.c: 75:     ANSELA = 0x00;
  1676  00B4  018C               	clrf	12	;volatile
  1677  00B5                     l1012:
  1678                           
  1679                           ;mcc_generated_files/pin_manager.c: 80:     WPUB = 0x00;
  1680  00B5  0024               	movlb	4	; select bank4
  1681  00B6  018D               	clrf	13	;volatile
  1682  00B7                     l1014:
  1683                           
  1684                           ;mcc_generated_files/pin_manager.c: 81:     WPUA = 0x00;
  1685  00B7  018C               	clrf	12	;volatile
  1686  00B8                     l1016:
  1687                           
  1688                           ;mcc_generated_files/pin_manager.c: 82:     OPTION_REGbits.nWPUEN = 1;
  1689  00B8  0021               	movlb	1	; select bank1
  1690  00B9  1795               	bsf	21,7	;volatile
  1691  00BA                     l1018:
  1692                           
  1693                           ;mcc_generated_files/pin_manager.c: 88:     APFCON0 = 0x00;
  1694  00BA  0022               	movlb	2	; select bank2
  1695  00BB  019D               	clrf	29	;volatile
  1696  00BC                     l1020:
  1697                           
  1698                           ;mcc_generated_files/pin_manager.c: 89:     APFCON1 = 0x00;
  1699  00BC  019E               	clrf	30	;volatile
  1700  00BD                     l1022:
  1701                           
  1702                           ;mcc_generated_files/pin_manager.c: 95:     IOCBFbits.IOCBF5 = 0;
  1703  00BD  0027               	movlb	7	; select bank7
  1704  00BE  1296               	bcf	22,5	;volatile
  1705  00BF                     l1024:
  1706                           
  1707                           ;mcc_generated_files/pin_manager.c: 97:     IOCBNbits.IOCBN5 = 0;
  1708  00BF  1295               	bcf	21,5	;volatile
  1709  00C0                     l1026:
  1710                           
  1711                           ;mcc_generated_files/pin_manager.c: 99:     IOCBPbits.IOCBP5 = 1;
  1712  00C0  1694               	bsf	20,5	;volatile
  1713  00C1                     l1028:
  1714                           
  1715                           ;mcc_generated_files/pin_manager.c: 104:     IOCBF5_SetInterruptHandler(IOCBF5_DefaultIn
      +                          terruptHandler);
  1716  00C1  3060               	movlw	low _IOCBF5_DefaultInterruptHandler
  1717  00C2  00F0               	movwf	IOCBF5_SetInterruptHandler@InterruptHandler
  1718  00C3  3001               	movlw	high _IOCBF5_DefaultInterruptHandler
  1719  00C4  00F1               	movwf	IOCBF5_SetInterruptHandler@InterruptHandler+1
  1720  00C5  3181  2146  3180   	fcall	_IOCBF5_SetInterruptHandler
  1721  00C8                     l1030:
  1722                           
  1723                           ;mcc_generated_files/pin_manager.c: 107:     INTCONbits.IOCIE = 1;
  1724  00C8  158B               	bsf	11,3	;volatile
  1725  00C9                     l68:
  1726  00C9  0008               	return
  1727  00CA                     __end_of_PIN_MANAGER_Initialize:
  1728                           
  1729                           	psect	text4
  1730  0146                     __ptext4:	
  1731 ;; *************** function _IOCBF5_SetInterruptHandler *****************
  1732 ;; Defined at:
  1733 ;;		line 138 in file "mcc_generated_files/pin_manager.c"
  1734 ;; Parameters:    Size  Location     Type
  1735 ;;  InterruptHan    2    0[COMMON] PTR FTN()void 
  1736 ;;		 -> VTStateChanged(1), IOCBF5_DefaultInterruptHandler(1), 
  1737 ;; Auto vars:     Size  Location     Type
  1738 ;;		None
  1739 ;; Return value:  Size  Location     Type
  1740 ;;                  1    wreg      void 
  1741 ;; Registers used:
  1742 ;;		wreg
  1743 ;; Tracked objects:
  1744 ;;		On entry : 0/0
  1745 ;;		On exit  : 0/0
  1746 ;;		Unchanged: 0/0
  1747 ;; Data sizes:     COMMON   BANK0   BANK1   BANK2   BANK3   BANK4
  1748 ;;      Params:         2       0       0       0       0       0
  1749 ;;      Locals:         0       0       0       0       0       0
  1750 ;;      Temps:          0       0       0       0       0       0
  1751 ;;      Totals:         2       0       0       0       0       0
  1752 ;;Total ram usage:        2 bytes
  1753 ;; Hardware stack levels used:    1
  1754 ;; Hardware stack levels required when called:    5
  1755 ;; This function calls:
  1756 ;;		Nothing
  1757 ;; This function is called by:
  1758 ;;		_PIN_MANAGER_Initialize
  1759 ;;		_main
  1760 ;; This function uses a non-reentrant model
  1761 ;;
  1762                           
  1763                           
  1764                           ;psect for function _IOCBF5_SetInterruptHandler
  1765  0146                     _IOCBF5_SetInterruptHandler:
  1766  0146                     l996:	
  1767                           ;incstack = 0
  1768                           ; Regs used in _IOCBF5_SetInterruptHandler: [wreg]
  1769                           
  1770                           
  1771                           ;mcc_generated_files/pin_manager.c: 139:     IOCBF5_InterruptHandler = InterruptHandler;
  1772  0146  0871               	movf	IOCBF5_SetInterruptHandler@InterruptHandler+1,w
  1773  0147  0020               	movlb	0	; select bank0
  1774  0148  00A1               	movwf	_IOCBF5_InterruptHandler+1
  1775  0149  0870               	movf	IOCBF5_SetInterruptHandler@InterruptHandler,w
  1776  014A  00A0               	movwf	_IOCBF5_InterruptHandler
  1777  014B                     l79:
  1778  014B  0008               	return
  1779  014C                     __end_of_IOCBF5_SetInterruptHandler:
  1780                           
  1781                           	psect	text5
  1782  014C                     __ptext5:	
  1783 ;; *************** function _OSCILLATOR_Initialize *****************
  1784 ;; Defined at:
  1785 ;;		line 60 in file "mcc_generated_files/mcc.c"
  1786 ;; Parameters:    Size  Location     Type
  1787 ;;		None
  1788 ;; Auto vars:     Size  Location     Type
  1789 ;;		None
  1790 ;; Return value:  Size  Location     Type
  1791 ;;                  1    wreg      void 
  1792 ;; Registers used:
  1793 ;;		status,2
  1794 ;; Tracked objects:
  1795 ;;		On entry : 0/0
  1796 ;;		On exit  : 0/0
  1797 ;;		Unchanged: 0/0
  1798 ;; Data sizes:     COMMON   BANK0   BANK1   BANK2   BANK3   BANK4
  1799 ;;      Params:         0       0       0       0       0       0
  1800 ;;      Locals:         0       0       0       0       0       0
  1801 ;;      Temps:          0       0       0       0       0       0
  1802 ;;      Totals:         0       0       0       0       0       0
  1803 ;;Total ram usage:        0 bytes
  1804 ;; Hardware stack levels used:    1
  1805 ;; Hardware stack levels required when called:    5
  1806 ;; This function calls:
  1807 ;;		Nothing
  1808 ;; This function is called by:
  1809 ;;		_SYSTEM_Initialize
  1810 ;; This function uses a non-reentrant model
  1811 ;;
  1812                           
  1813                           
  1814                           ;psect for function _OSCILLATOR_Initialize
  1815  014C                     _OSCILLATOR_Initialize:
  1816  014C                     l870:	
  1817                           ;incstack = 0
  1818                           ; Regs used in _OSCILLATOR_Initialize: [status,2]
  1819                           
  1820                           
  1821                           ;mcc_generated_files/mcc.c: 63:     OSCCON = 0x00;
  1822  014C  0021               	movlb	1	; select bank1
  1823  014D  0199               	clrf	25	;volatile
  1824                           
  1825                           ;mcc_generated_files/mcc.c: 65:     OSCTUNE = 0x00;
  1826  014E  0198               	clrf	24	;volatile
  1827                           
  1828                           ;mcc_generated_files/mcc.c: 67:     BORCON = 0x00;
  1829  014F  0022               	movlb	2	; select bank2
  1830  0150  0196               	clrf	22	;volatile
  1831  0151                     l24:
  1832  0151  0008               	return
  1833  0152                     __end_of_OSCILLATOR_Initialize:
  1834                           
  1835                           	psect	text6
  1836  0156                     __ptext6:	
  1837 ;; *************** function _FVR_Initialize *****************
  1838 ;; Defined at:
  1839 ;;		line 58 in file "mcc_generated_files/fvr.c"
  1840 ;; Parameters:    Size  Location     Type
  1841 ;;		None
  1842 ;; Auto vars:     Size  Location     Type
  1843 ;;		None
  1844 ;; Return value:  Size  Location     Type
  1845 ;;                  1    wreg      void 
  1846 ;; Registers used:
  1847 ;;		wreg
  1848 ;; Tracked objects:
  1849 ;;		On entry : 0/0
  1850 ;;		On exit  : 0/0
  1851 ;;		Unchanged: 0/0
  1852 ;; Data sizes:     COMMON   BANK0   BANK1   BANK2   BANK3   BANK4
  1853 ;;      Params:         0       0       0       0       0       0
  1854 ;;      Locals:         0       0       0       0       0       0
  1855 ;;      Temps:          0       0       0       0       0       0
  1856 ;;      Totals:         0       0       0       0       0       0
  1857 ;;Total ram usage:        0 bytes
  1858 ;; Hardware stack levels used:    1
  1859 ;; Hardware stack levels required when called:    5
  1860 ;; This function calls:
  1861 ;;		Nothing
  1862 ;; This function is called by:
  1863 ;;		_SYSTEM_Initialize
  1864 ;; This function uses a non-reentrant model
  1865 ;;
  1866                           
  1867                           
  1868                           ;psect for function _FVR_Initialize
  1869  0156                     _FVR_Initialize:
  1870  0156                     l874:	
  1871                           ;incstack = 0
  1872                           ; Regs used in _FVR_Initialize: [wreg]
  1873                           
  1874                           
  1875                           ;mcc_generated_files/fvr.c: 61:     FVRCON = 0x82;
  1876  0156  3082               	movlw	130
  1877  0157  0022               	movlb	2	; select bank2
  1878  0158  0097               	movwf	23	;volatile
  1879  0159                     l138:
  1880  0159  0008               	return
  1881  015A                     __end_of_FVR_Initialize:
  1882                           
  1883                           	psect	text7
  1884  013E                     __ptext7:	
  1885 ;; *************** function _ADC_Initialize *****************
  1886 ;; Defined at:
  1887 ;;		line 67 in file "mcc_generated_files/adc.c"
  1888 ;; Parameters:    Size  Location     Type
  1889 ;;		None
  1890 ;; Auto vars:     Size  Location     Type
  1891 ;;		None
  1892 ;; Return value:  Size  Location     Type
  1893 ;;                  1    wreg      void 
  1894 ;; Registers used:
  1895 ;;		wreg, status,2
  1896 ;; Tracked objects:
  1897 ;;		On entry : 0/0
  1898 ;;		On exit  : 0/0
  1899 ;;		Unchanged: 0/0
  1900 ;; Data sizes:     COMMON   BANK0   BANK1   BANK2   BANK3   BANK4
  1901 ;;      Params:         0       0       0       0       0       0
  1902 ;;      Locals:         0       0       0       0       0       0
  1903 ;;      Temps:          0       0       0       0       0       0
  1904 ;;      Totals:         0       0       0       0       0       0
  1905 ;;Total ram usage:        0 bytes
  1906 ;; Hardware stack levels used:    1
  1907 ;; Hardware stack levels required when called:    5
  1908 ;; This function calls:
  1909 ;;		Nothing
  1910 ;; This function is called by:
  1911 ;;		_SYSTEM_Initialize
  1912 ;; This function uses a non-reentrant model
  1913 ;;
  1914                           
  1915                           
  1916                           ;psect for function _ADC_Initialize
  1917  013E                     _ADC_Initialize:
  1918  013E                     l876:	
  1919                           ;incstack = 0
  1920                           ; Regs used in _ADC_Initialize: [wreg+status,2]
  1921                           
  1922                           
  1923                           ;mcc_generated_files/adc.c: 72:     ADCON1 = 0x83;
  1924  013E  3083               	movlw	131
  1925  013F  0021               	movlb	1	; select bank1
  1926  0140  009E               	movwf	30	;volatile
  1927  0141                     l878:
  1928                           
  1929                           ;mcc_generated_files/adc.c: 75:     ADRESL = 0x00;
  1930  0141  019B               	clrf	27	;volatile
  1931  0142                     l880:
  1932                           
  1933                           ;mcc_generated_files/adc.c: 78:     ADRESH = 0x00;
  1934  0142  019C               	clrf	28	;volatile
  1935                           
  1936                           ;mcc_generated_files/adc.c: 81:     ADCON0 = 0x01;
  1937  0143  3001               	movlw	1
  1938  0144  009D               	movwf	29	;volatile
  1939  0145                     l110:
  1940  0145  0008               	return
  1941  0146                     __end_of_ADC_Initialize:
  1942                           
  1943                           	psect	text8
  1944  001D                     __ptext8:	
  1945 ;; *************** function _GetBatteryLevel *****************
  1946 ;; Defined at:
  1947 ;;		line 81 in file "main.c"
  1948 ;; Parameters:    Size  Location     Type
  1949 ;;		None
  1950 ;; Auto vars:     Size  Location     Type
  1951 ;;  val             2    7[COMMON] unsigned short 
  1952 ;;  ledval          1    6[COMMON] unsigned char 
  1953 ;; Return value:  Size  Location     Type
  1954 ;;                  1    wreg      void 
  1955 ;; Registers used:
  1956 ;;		wreg, status,2, status,0, pclath, cstack
  1957 ;; Tracked objects:
  1958 ;;		On entry : 0/0
  1959 ;;		On exit  : 0/0
  1960 ;;		Unchanged: 0/0
  1961 ;; Data sizes:     COMMON   BANK0   BANK1   BANK2   BANK3   BANK4
  1962 ;;      Params:         0       0       0       0       0       0
  1963 ;;      Locals:         3       0       0       0       0       0
  1964 ;;      Temps:          2       0       0       0       0       0
  1965 ;;      Totals:         5       0       0       0       0       0
  1966 ;;Total ram usage:        5 bytes
  1967 ;; Hardware stack levels used:    1
  1968 ;; Hardware stack levels required when called:    6
  1969 ;; This function calls:
  1970 ;;		_ADC_GetConversion
  1971 ;; This function is called by:
  1972 ;;		_main
  1973 ;; This function uses a non-reentrant model
  1974 ;;
  1975                           
  1976                           
  1977                           ;psect for function _GetBatteryLevel
  1978  001D                     _GetBatteryLevel:
  1979  001D                     l1064:	
  1980                           ;incstack = 0
  1981                           ; Regs used in _GetBatteryLevel: [wreg+status,2+status,0+pclath+cstack]
  1982                           
  1983                           
  1984                           ;main.c: 83:     char ledval = LATBbits.LATB0;
  1985  001D  3000               	movlw	0
  1986  001E  0022               	movlb	2	; select bank2
  1987  001F  180D               	btfsc	13,0	;volatile
  1988  0020  3001               	movlw	1
  1989  0021  00F6               	movwf	GetBatteryLevel@ledval
  1990  0022                     l1066:
  1991                           
  1992                           ;main.c: 84:     LATBbits.LATB0 = !ledval;
  1993  0022  0876               	movf	GetBatteryLevel@ledval,w
  1994  0023  1903               	btfsc	3,2
  1995  0024  2826               	goto	u311
  1996  0025  2829               	goto	u310
  1997  0026                     u311:
  1998  0026  0022               	movlb	2	; select bank2
  1999  0027  140D               	bsf	13,0	;volatile
  2000  0028  282B               	goto	u324
  2001  0029                     u310:
  2002  0029  0022               	movlb	2	; select bank2
  2003  002A  100D               	bcf	13,0	;volatile
  2004  002B                     u324:
  2005  002B                     l1068:
  2006                           
  2007                           ;main.c: 87:     uint16_t val = ADC_GetConversion(BATTERY_LVL);
  2008  002B  300A               	movlw	10
  2009  002C  3180  20FF  3180   	fcall	_ADC_GetConversion
  2010  002F  0871               	movf	?_ADC_GetConversion+1,w
  2011  0030  00F8               	movwf	GetBatteryLevel@val+1
  2012  0031  0870               	movf	?_ADC_GetConversion,w
  2013  0032  00F7               	movwf	GetBatteryLevel@val
  2014  0033                     l1070:
  2015                           
  2016                           ;main.c: 88:     val = val * 8;
  2017  0033  0878               	movf	GetBatteryLevel@val+1,w
  2018  0034  00F5               	movwf	??_GetBatteryLevel+1
  2019  0035  0877               	movf	GetBatteryLevel@val,w
  2020  0036  00F4               	movwf	??_GetBatteryLevel
  2021  0037  35F4               	lslf	??_GetBatteryLevel,f
  2022  0038  0DF5               	rlf	??_GetBatteryLevel+1,f
  2023  0039  35F4               	lslf	??_GetBatteryLevel,f
  2024  003A  0DF5               	rlf	??_GetBatteryLevel+1,f
  2025  003B  35F4               	lslf	??_GetBatteryLevel,f
  2026  003C  0DF5               	rlf	??_GetBatteryLevel+1,f
  2027  003D  0874               	movf	??_GetBatteryLevel,w
  2028  003E  00F7               	movwf	GetBatteryLevel@val
  2029  003F  0875               	movf	??_GetBatteryLevel+1,w
  2030  0040  00F8               	movwf	GetBatteryLevel@val+1
  2031  0041                     l1072:
  2032  0041  0022               	movlb	2	; select bank2
  2033  0042  150C               	bsf	12,2	;volatile
  2034  0043                     l1074:
  2035  0043  158C               	bsf	12,3	;volatile
  2036  0044                     l1076:
  2037                           
  2038                           ;main.c: 97:     if(val >= 3600)
  2039  0044  300E               	movlw	14
  2040  0045  0278               	subwf	GetBatteryLevel@val+1,w
  2041  0046  3010               	movlw	16
  2042  0047  1903               	skipnz
  2043  0048  0277               	subwf	GetBatteryLevel@val,w
  2044  0049  1C03               	skipc
  2045  004A  284C               	goto	u331
  2046  004B  284D               	goto	u330
  2047  004C                     u331:
  2048  004C  284F               	goto	l1078
  2049  004D                     u330:
  2050  004D                     l185:	
  2051                           ;main.c: 98:     {;main.c: 99:         do { LATAbits.LATA2 = 0; } while(0);
  2052                           
  2053  004D  110C               	bcf	12,2	;volatile
  2054  004E  2867               	goto	l1082
  2055  004F                     l1078:
  2056  004F  300C               	movlw	12
  2057  0050  0278               	subwf	GetBatteryLevel@val+1,w
  2058  0051  30E4               	movlw	228
  2059  0052  1903               	skipnz
  2060  0053  0277               	subwf	GetBatteryLevel@val,w
  2061  0054  1C03               	skipc
  2062  0055  2857               	goto	u341
  2063  0056  2858               	goto	u340
  2064  0057                     u341:
  2065  0057  285B               	goto	l1080
  2066  0058                     u340:
  2067  0058                     l189:	
  2068                           ;main.c: 102:     {;main.c: 103:         do { LATAbits.LATA2 = 0; } while(0);
  2069                           
  2070  0058  110C               	bcf	12,2	;volatile
  2071  0059                     l191:	
  2072                           ;main.c: 104:         do { LATAbits.LATA3 = 0; } while(0);
  2073                           
  2074  0059  118C               	bcf	12,3	;volatile
  2075  005A  2867               	goto	l1082
  2076  005B                     l1080:
  2077  005B  300B               	movlw	11
  2078  005C  0278               	subwf	GetBatteryLevel@val+1,w
  2079  005D  30B8               	movlw	184
  2080  005E  1903               	skipnz
  2081  005F  0277               	subwf	GetBatteryLevel@val,w
  2082  0060  1C03               	skipc
  2083  0061  2863               	goto	u351
  2084  0062  2864               	goto	u350
  2085  0063                     u351:
  2086  0063  2866               	goto	l198
  2087  0064                     u350:
  2088  0064                     l195:	
  2089                           ;main.c: 107:     {;main.c: 108:         do { LATAbits.LATA3 = 0; } while(0);
  2090                           
  2091  0064  118C               	bcf	12,3	;volatile
  2092  0065  2867               	goto	l1082
  2093  0066                     l198:	
  2094                           ;main.c: 111:     {;main.c: 112:         do { LATBbits.LATB1 = 0; } while(0);
  2095                           
  2096  0066  108D               	bcf	13,1	;volatile
  2097  0067                     l1082:
  2098                           
  2099                           ;main.c: 115:     _delay((unsigned long)((50)*(31000/4000.0)));
  2100  0067  3081               	movlw	129
  2101  0068                     u417:
  2102  0068  0B89               	decfsz	9,f
  2103  0069  2868               	goto	u417
  2104  006A                     l1084:
  2105                           
  2106                           ;main.c: 116:     LATBbits.LATB0 = ledval;
  2107  006A  0C76               	rrf	GetBatteryLevel@ledval,w
  2108  006B  0022               	movlb	2	; select bank2
  2109  006C  1C03               	skipc
  2110  006D  100D               	bcf	13,0	;volatile
  2111  006E  1803               	skipnc
  2112  006F  140D               	bsf	13,0	;volatile
  2113  0070                     l200:
  2114  0070  0008               	return
  2115  0071                     __end_of_GetBatteryLevel:
  2116                           
  2117                           	psect	text9
  2118  00FF                     __ptext9:	
  2119 ;; *************** function _ADC_GetConversion *****************
  2120 ;; Defined at:
  2121 ;;		line 112 in file "mcc_generated_files/adc.c"
  2122 ;; Parameters:    Size  Location     Type
  2123 ;;  channel         1    wreg     enum E2474
  2124 ;; Auto vars:     Size  Location     Type
  2125 ;;  channel         1    3[COMMON] enum E2474
  2126 ;; Return value:  Size  Location     Type
  2127 ;;                  2    0[COMMON] unsigned short 
  2128 ;; Registers used:
  2129 ;;		wreg, status,2, status,0
  2130 ;; Tracked objects:
  2131 ;;		On entry : 0/0
  2132 ;;		On exit  : 0/0
  2133 ;;		Unchanged: 0/0
  2134 ;; Data sizes:     COMMON   BANK0   BANK1   BANK2   BANK3   BANK4
  2135 ;;      Params:         2       0       0       0       0       0
  2136 ;;      Locals:         1       0       0       0       0       0
  2137 ;;      Temps:          1       0       0       0       0       0
  2138 ;;      Totals:         4       0       0       0       0       0
  2139 ;;Total ram usage:        4 bytes
  2140 ;; Hardware stack levels used:    1
  2141 ;; Hardware stack levels required when called:    5
  2142 ;; This function calls:
  2143 ;;		Nothing
  2144 ;; This function is called by:
  2145 ;;		_GetBatteryLevel
  2146 ;; This function uses a non-reentrant model
  2147 ;;
  2148                           
  2149                           
  2150                           ;psect for function _ADC_GetConversion
  2151  00FF                     _ADC_GetConversion:
  2152                           
  2153                           ;incstack = 0
  2154                           ; Regs used in _ADC_GetConversion: [wreg+status,2+status,0]
  2155                           ;ADC_GetConversion@channel stored from wreg
  2156  00FF  00F3               	movwf	ADC_GetConversion@channel
  2157  0100                     l1038:
  2158                           
  2159                           ;mcc_generated_files/adc.c: 112: adc_result_t ADC_GetConversion(adc_channel_t channel);m
      +                          cc_generated_files/adc.c: 113: {;mcc_generated_files/adc.c: 115:     ADCON0bits.CHS = ch
      +                          annel;
  2160  0100  0873               	movf	ADC_GetConversion@channel,w
  2161  0101  00F2               	movwf	??_ADC_GetConversion
  2162  0102  0DF2               	rlf	??_ADC_GetConversion,f
  2163  0103  0DF2               	rlf	??_ADC_GetConversion,f
  2164  0104  0021               	movlb	1	; select bank1
  2165  0105  081D               	movf	29,w	;volatile
  2166  0106  0672               	xorwf	??_ADC_GetConversion,w
  2167  0107  3983               	andlw	-125
  2168  0108  0672               	xorwf	??_ADC_GetConversion,w
  2169  0109  009D               	movwf	29	;volatile
  2170  010A                     l1040:
  2171                           
  2172                           ;mcc_generated_files/adc.c: 118:     ADCON0bits.ADON = 1;
  2173  010A  141D               	bsf	29,0	;volatile
  2174  010B                     l1042:
  2175  010B                     l1044:	
  2176                           ;mcc_generated_files/adc.c: 121:     _delay((unsigned long)((5)*(31000/4000000.0)));
  2177                           
  2178                           
  2179                           ;mcc_generated_files/adc.c: 124:     ADCON0bits.GO_nDONE = 1;
  2180  010B  0021               	movlb	1	; select bank1
  2181  010C  149D               	bsf	29,1	;volatile
  2182  010D                     l125:	
  2183                           ;mcc_generated_files/adc.c: 128:     {;mcc_generated_files/adc.c: 129:     }
  2184                           
  2185                           
  2186                           ;mcc_generated_files/adc.c: 127:     while (ADCON0bits.GO_nDONE)
  2187  010D  189D               	btfsc	29,1	;volatile
  2188  010E  2910               	goto	u291
  2189  010F  2911               	goto	u290
  2190  0110                     u291:
  2191  0110  290D               	goto	l125
  2192  0111                     u290:
  2193  0111                     l1046:
  2194                           
  2195                           ;mcc_generated_files/adc.c: 132:     return ((adc_result_t)((ADRESH << 8) + ADRESL));
  2196  0111  081C               	movf	28,w	;volatile
  2197  0112  00F1               	movwf	?_ADC_GetConversion+1
  2198  0113  081B               	movf	27,w	;volatile
  2199  0114  00F0               	movwf	?_ADC_GetConversion
  2200  0115                     l128:
  2201  0115  0008               	return
  2202  0116                     __end_of_ADC_GetConversion:
  2203                           
  2204                           	psect	intentry
  2205  0004                     __pintentry:	
  2206 ;; *************** function _INTERRUPT_InterruptManager *****************
  2207 ;; Defined at:
  2208 ;;		line 52 in file "mcc_generated_files/interrupt_manager.c"
  2209 ;; Parameters:    Size  Location     Type
  2210 ;;		None
  2211 ;; Auto vars:     Size  Location     Type
  2212 ;;		None
  2213 ;; Return value:  Size  Location     Type
  2214 ;;                  1    wreg      void 
  2215 ;; Registers used:
  2216 ;;		wreg, status,2, status,0, pclath, cstack
  2217 ;; Tracked objects:
  2218 ;;		On entry : 0/0
  2219 ;;		On exit  : 0/0
  2220 ;;		Unchanged: 0/0
  2221 ;; Data sizes:     COMMON   BANK0   BANK1   BANK2   BANK3   BANK4
  2222 ;;      Params:         0       0       0       0       0       0
  2223 ;;      Locals:         0       0       0       0       0       0
  2224 ;;      Temps:          0       0       0       0       0       0
  2225 ;;      Totals:         0       0       0       0       0       0
  2226 ;;Total ram usage:        0 bytes
  2227 ;; Hardware stack levels used:    1
  2228 ;; Hardware stack levels required when called:    4
  2229 ;; This function calls:
  2230 ;;		_PIN_MANAGER_IOC
  2231 ;; This function is called by:
  2232 ;;		Interrupt level 1
  2233 ;; This function uses a non-reentrant model
  2234 ;;
  2235                           
  2236  0004                     _INTERRUPT_InterruptManager:
  2237                           
  2238                           ;incstack = 0
  2239  0004  147E               	bsf	int$flags,0	;set compiler interrupt flag (level 1)
  2240                           
  2241                           ; Regs used in _INTERRUPT_InterruptManager: [wreg+status,2+status,0+pclath+cstack]
  2242  0005  3180               	pagesel	$
  2243  0006                     i1l1086:
  2244                           
  2245                           ;mcc_generated_files/interrupt_manager.c: 55:     if(INTCONbits.IOCIE == 1 && INTCONbits
      +                          .IOCIF == 1)
  2246  0006  1D8B               	btfss	11,3	;volatile
  2247  0007  2809               	goto	u36_21
  2248  0008  280A               	goto	u36_20
  2249  0009                     u36_21:
  2250  0009  2811               	goto	i1l93
  2251  000A                     u36_20:
  2252  000A                     i1l1088:
  2253  000A  1C0B               	btfss	11,0	;volatile
  2254  000B  280D               	goto	u37_21
  2255  000C  280E               	goto	u37_20
  2256  000D                     u37_21:
  2257  000D  2811               	goto	i1l93
  2258  000E                     u37_20:
  2259  000E                     i1l1090:
  2260                           
  2261                           ;mcc_generated_files/interrupt_manager.c: 56:     {;mcc_generated_files/interrupt_manage
      +                          r.c: 57:         PIN_MANAGER_IOC();
  2262  000E  3181  2135  3180   	fcall	_PIN_MANAGER_IOC
  2263  0011                     i1l93:	
  2264                           ;mcc_generated_files/interrupt_manager.c: 58:     }
  2265                           
  2266  0011  107E               	bcf	int$flags,0	;clear compiler interrupt flag (level 1)
  2267  0012  0009               	retfie
  2268  0013                     __end_of_INTERRUPT_InterruptManager:
  2269                           
  2270                           	psect	text11
  2271  0135                     __ptext11:	
  2272 ;; *************** function _PIN_MANAGER_IOC *****************
  2273 ;; Defined at:
  2274 ;;		line 111 in file "mcc_generated_files/pin_manager.c"
  2275 ;; Parameters:    Size  Location     Type
  2276 ;;		None
  2277 ;; Auto vars:     Size  Location     Type
  2278 ;;		None
  2279 ;; Return value:  Size  Location     Type
  2280 ;;                  1    wreg      void 
  2281 ;; Registers used:
  2282 ;;		wreg, status,2, status,0, pclath, cstack
  2283 ;; Tracked objects:
  2284 ;;		On entry : 0/0
  2285 ;;		On exit  : 0/0
  2286 ;;		Unchanged: 0/0
  2287 ;; Data sizes:     COMMON   BANK0   BANK1   BANK2   BANK3   BANK4
  2288 ;;      Params:         0       0       0       0       0       0
  2289 ;;      Locals:         0       0       0       0       0       0
  2290 ;;      Temps:          0       0       0       0       0       0
  2291 ;;      Totals:         0       0       0       0       0       0
  2292 ;;Total ram usage:        0 bytes
  2293 ;; Hardware stack levels used:    1
  2294 ;; Hardware stack levels required when called:    3
  2295 ;; This function calls:
  2296 ;;		_IOCBF5_ISR
  2297 ;; This function is called by:
  2298 ;;		_INTERRUPT_InterruptManager
  2299 ;; This function uses a non-reentrant model
  2300 ;;
  2301                           
  2302                           
  2303                           ;psect for function _PIN_MANAGER_IOC
  2304  0135                     _PIN_MANAGER_IOC:
  2305  0135                     i1l1060:	
  2306                           ;incstack = 0
  2307                           ; Regs used in _PIN_MANAGER_IOC: [wreg+status,2+status,0+pclath+cstack]
  2308                           
  2309                           
  2310                           ;mcc_generated_files/pin_manager.c: 114:     if(IOCBFbits.IOCBF5 == 1)
  2311  0135  0027               	movlb	7	; select bank7
  2312  0136  1E96               	btfss	22,5	;volatile
  2313  0137  2939               	goto	u30_21
  2314  0138  293A               	goto	u30_20
  2315  0139                     u30_21:
  2316  0139  293D               	goto	i1l72
  2317  013A                     u30_20:
  2318  013A                     i1l1062:
  2319                           
  2320                           ;mcc_generated_files/pin_manager.c: 115:     {;mcc_generated_files/pin_manager.c: 116:  
      +                                 IOCBF5_ISR();
  2321  013A  3181  2126  3181   	fcall	_IOCBF5_ISR
  2322  013D                     i1l72:
  2323  013D  0008               	return
  2324  013E                     __end_of_PIN_MANAGER_IOC:
  2325                           
  2326                           	psect	text12
  2327  0126                     __ptext12:	
  2328 ;; *************** function _IOCBF5_ISR *****************
  2329 ;; Defined at:
  2330 ;;		line 123 in file "mcc_generated_files/pin_manager.c"
  2331 ;; Parameters:    Size  Location     Type
  2332 ;;		None
  2333 ;; Auto vars:     Size  Location     Type
  2334 ;;		None
  2335 ;; Return value:  Size  Location     Type
  2336 ;;                  1    wreg      void 
  2337 ;; Registers used:
  2338 ;;		wreg, status,2, status,0, pclath, cstack
  2339 ;; Tracked objects:
  2340 ;;		On entry : 0/0
  2341 ;;		On exit  : 0/0
  2342 ;;		Unchanged: 0/0
  2343 ;; Data sizes:     COMMON   BANK0   BANK1   BANK2   BANK3   BANK4
  2344 ;;      Params:         0       0       0       0       0       0
  2345 ;;      Locals:         0       0       0       0       0       0
  2346 ;;      Temps:          0       0       0       0       0       0
  2347 ;;      Totals:         0       0       0       0       0       0
  2348 ;;Total ram usage:        0 bytes
  2349 ;; Hardware stack levels used:    1
  2350 ;; Hardware stack levels required when called:    2
  2351 ;; This function calls:
  2352 ;;		Absolute function
  2353 ;;		_IOCBF5_DefaultInterruptHandler
  2354 ;;		_VTStateChanged
  2355 ;; This function is called by:
  2356 ;;		_PIN_MANAGER_IOC
  2357 ;; This function uses a non-reentrant model
  2358 ;;
  2359                           
  2360                           
  2361                           ;psect for function _IOCBF5_ISR
  2362  0126                     _IOCBF5_ISR:
  2363  0126                     i1l1032:	
  2364                           ;incstack = 0
  2365                           ; Regs used in _IOCBF5_ISR: [wreg+status,2+status,0+pclath+cstack]
  2366                           
  2367                           
  2368                           ;mcc_generated_files/pin_manager.c: 128:     if(IOCBF5_InterruptHandler)
  2369  0126  0020               	movlb	0	; select bank0
  2370  0127  0820               	movf	_IOCBF5_InterruptHandler,w
  2371  0128  0421               	iorwf	_IOCBF5_InterruptHandler+1,w
  2372  0129  1903               	btfsc	3,2
  2373  012A  292C               	goto	u28_21
  2374  012B  292D               	goto	u28_20
  2375  012C                     u28_21:
  2376  012C  2932               	goto	i1l1036
  2377  012D                     u28_20:
  2378  012D                     i1l1034:
  2379                           
  2380                           ;mcc_generated_files/pin_manager.c: 129:     {;mcc_generated_files/pin_manager.c: 130:  
      +                                 IOCBF5_InterruptHandler();
  2381  012D  0821               	movf	_IOCBF5_InterruptHandler+1,w
  2382  012E  008A               	movwf	10
  2383  012F  0820               	movf	_IOCBF5_InterruptHandler,w
  2384  0130  000A               	callw
  2385  0131  3181               	pagesel	$
  2386  0132                     i1l1036:
  2387                           
  2388                           ;mcc_generated_files/pin_manager.c: 132:     IOCBFbits.IOCBF5 = 0;
  2389  0132  0027               	movlb	7	; select bank7
  2390  0133  1296               	bcf	22,5	;volatile
  2391  0134                     i1l76:
  2392  0134  0008               	return
  2393  0135                     __end_of_IOCBF5_ISR:
  2394                           
  2395                           	psect	text13
  2396  0160                     __ptext13:	
  2397 ;; *************** function _IOCBF5_DefaultInterruptHandler *****************
  2398 ;; Defined at:
  2399 ;;		line 145 in file "mcc_generated_files/pin_manager.c"
  2400 ;; Parameters:    Size  Location     Type
  2401 ;;		None
  2402 ;; Auto vars:     Size  Location     Type
  2403 ;;		None
  2404 ;; Return value:  Size  Location     Type
  2405 ;;                  1    wreg      void 
  2406 ;; Registers used:
  2407 ;;		None
  2408 ;; Tracked objects:
  2409 ;;		On entry : 0/0
  2410 ;;		On exit  : 0/0
  2411 ;;		Unchanged: 0/0
  2412 ;; Data sizes:     COMMON   BANK0   BANK1   BANK2   BANK3   BANK4
  2413 ;;      Params:         0       0       0       0       0       0
  2414 ;;      Locals:         0       0       0       0       0       0
  2415 ;;      Temps:          0       0       0       0       0       0
  2416 ;;      Totals:         0       0       0       0       0       0
  2417 ;;Total ram usage:        0 bytes
  2418 ;; Hardware stack levels used:    1
  2419 ;; This function calls:
  2420 ;;		Nothing
  2421 ;; This function is called by:
  2422 ;;		_PIN_MANAGER_Initialize
  2423 ;;		_IOCBF5_ISR
  2424 ;; This function uses a non-reentrant model
  2425 ;;
  2426                           
  2427                           
  2428                           ;psect for function _IOCBF5_DefaultInterruptHandler
  2429  0160                     _IOCBF5_DefaultInterruptHandler:
  2430  0160                     i1l82:	
  2431                           ;incstack = 0
  2432                           ; Regs used in _IOCBF5_DefaultInterruptHandler: []
  2433                           
  2434  0160  0008               	return
  2435  0161                     __end_of_IOCBF5_DefaultInterruptHandler:
  2436                           
  2437                           	psect	text14
  2438  00CA                     __ptext14:	
  2439 ;; *************** function _VTStateChanged *****************
  2440 ;; Defined at:
  2441 ;;		line 60 in file "main.c"
  2442 ;; Parameters:    Size  Location     Type
  2443 ;;		None
  2444 ;; Auto vars:     Size  Location     Type
  2445 ;;		None
  2446 ;; Return value:  Size  Location     Type
  2447 ;;                  1    wreg      void 
  2448 ;; Registers used:
  2449 ;;		status,2, status,0, pclath, cstack
  2450 ;; Tracked objects:
  2451 ;;		On entry : 0/0
  2452 ;;		On exit  : 0/0
  2453 ;;		Unchanged: 0/0
  2454 ;; Data sizes:     COMMON   BANK0   BANK1   BANK2   BANK3   BANK4
  2455 ;;      Params:         0       0       0       0       0       0
  2456 ;;      Locals:         0       0       0       0       0       0
  2457 ;;      Temps:          0       0       0       0       0       0
  2458 ;;      Totals:         0       0       0       0       0       0
  2459 ;;Total ram usage:        0 bytes
  2460 ;; Hardware stack levels used:    1
  2461 ;; Hardware stack levels required when called:    1
  2462 ;; This function calls:
  2463 ;;		_LampOff
  2464 ;;		_ToggleLamp
  2465 ;; This function is called by:
  2466 ;;		_main
  2467 ;;		_IOCBF5_ISR
  2468 ;; This function uses a non-reentrant model
  2469 ;;
  2470                           
  2471                           
  2472                           ;psect for function _VTStateChanged
  2473  00CA                     _VTStateChanged:
  2474  00CA                     i1l998:	
  2475                           ;incstack = 0
  2476                           ; Regs used in _VTStateChanged: [status,2+status,0+pclath+cstack]
  2477                           
  2478                           
  2479                           ;main.c: 62:     if(PORTAbits.RA0)
  2480  00CA  0020               	movlb	0	; select bank0
  2481  00CB  1C0C               	btfss	12,0	;volatile
  2482  00CC  28CE               	goto	u24_21
  2483  00CD  28CF               	goto	u24_20
  2484  00CE                     u24_21:
  2485  00CE  28D3               	goto	i1l170
  2486  00CF                     u24_20:
  2487  00CF                     i1l1000:
  2488                           
  2489                           ;main.c: 63:     {;main.c: 64:         ToggleLamp();
  2490  00CF  3180  20E7  3180   	fcall	_ToggleLamp
  2491                           
  2492                           ;main.c: 65:     }
  2493  00D2  28E6               	goto	i1l177
  2494  00D3                     i1l170:	
  2495                           ;main.c: 66:     else if (PORTAbits.RA7)
  2496                           
  2497  00D3  1F8C               	btfss	12,7	;volatile
  2498  00D4  28D6               	goto	u25_21
  2499  00D5  28D7               	goto	u25_20
  2500  00D6                     u25_21:
  2501  00D6  28D9               	goto	i1l172
  2502  00D7                     u25_20:
  2503  00D7                     i1l1002:
  2504                           
  2505                           ;main.c: 67:     {;main.c: 68:         __nop();
  2506  00D7  0000               	nop
  2507                           
  2508                           ;main.c: 69:     }
  2509  00D8  28E6               	goto	i1l177
  2510  00D9                     i1l172:	
  2511                           ;main.c: 70:     else if (PORTAbits.RA6)
  2512                           
  2513  00D9  1F0C               	btfss	12,6	;volatile
  2514  00DA  28DC               	goto	u26_21
  2515  00DB  28DD               	goto	u26_20
  2516  00DC                     u26_21:
  2517  00DC  28DE               	goto	i1l174
  2518  00DD                     u26_20:
  2519  00DD  28D7               	goto	i1l1002
  2520  00DE                     i1l174:	
  2521                           ;main.c: 74:     else if (PORTAbits.RA1)
  2522                           
  2523  00DE  1C8C               	btfss	12,1	;volatile
  2524  00DF  28E1               	goto	u27_21
  2525  00E0  28E2               	goto	u27_20
  2526  00E1                     u27_21:
  2527  00E1  28E6               	goto	i1l173
  2528  00E2                     u27_20:
  2529  00E2                     i1l1006:
  2530                           
  2531                           ;main.c: 75:     {;main.c: 76:         LampOff();
  2532  00E2  3181  215A  3180   	fcall	_LampOff
  2533  00E5  28E6               	goto	i1l177
  2534  00E6                     i1l173:
  2535  00E6                     i1l177:
  2536  00E6  0008               	return
  2537  00E7                     __end_of_VTStateChanged:
  2538                           
  2539                           	psect	text15
  2540  00E7                     __ptext15:	
  2541 ;; *************** function _ToggleLamp *****************
  2542 ;; Defined at:
  2543 ;;		line 48 in file "main.c"
  2544 ;; Parameters:    Size  Location     Type
  2545 ;;		None
  2546 ;; Auto vars:     Size  Location     Type
  2547 ;;		None
  2548 ;; Return value:  Size  Location     Type
  2549 ;;                  1    wreg      void 
  2550 ;; Registers used:
  2551 ;;		status,0
  2552 ;; Tracked objects:
  2553 ;;		On entry : 0/0
  2554 ;;		On exit  : 0/0
  2555 ;;		Unchanged: 0/0
  2556 ;; Data sizes:     COMMON   BANK0   BANK1   BANK2   BANK3   BANK4
  2557 ;;      Params:         0       0       0       0       0       0
  2558 ;;      Locals:         0       0       0       0       0       0
  2559 ;;      Temps:          0       0       0       0       0       0
  2560 ;;      Totals:         0       0       0       0       0       0
  2561 ;;Total ram usage:        0 bytes
  2562 ;; Hardware stack levels used:    1
  2563 ;; This function calls:
  2564 ;;		Nothing
  2565 ;; This function is called by:
  2566 ;;		_VTStateChanged
  2567 ;; This function uses a non-reentrant model
  2568 ;;
  2569                           
  2570                           
  2571                           ;psect for function _ToggleLamp
  2572  00E7                     _ToggleLamp:
  2573  00E7                     i1l992:	
  2574                           ;incstack = 0
  2575                           ; Regs used in _ToggleLamp: [status,0]
  2576                           
  2577                           
  2578                           ;main.c: 50:     LATBbits.LATB3 = !LATBbits.LATB3;
  2579  00E7  1003               	clrc
  2580  00E8  0022               	movlb	2	; select bank2
  2581  00E9  1D8D               	btfss	13,3	;volatile
  2582  00EA  1403               	setc
  2583  00EB  1803               	btfsc	3,0
  2584  00EC  28EE               	goto	u20_21
  2585  00ED  28F1               	goto	u20_20
  2586  00EE                     u20_21:
  2587  00EE  0022               	movlb	2	; select bank2
  2588  00EF  158D               	bsf	13,3	;volatile
  2589  00F0  28F3               	goto	u21_24
  2590  00F1                     u20_20:
  2591  00F1  0022               	movlb	2	; select bank2
  2592  00F2  118D               	bcf	13,3	;volatile
  2593  00F3                     u21_24:
  2594                           
  2595                           ;main.c: 51:     LATBbits.LATB0 = !LATBbits.LATB3;
  2596  00F3  1003               	clrc
  2597  00F4  1D8D               	btfss	13,3	;volatile
  2598  00F5  1403               	setc
  2599  00F6  1803               	btfsc	3,0
  2600  00F7  28F9               	goto	u22_21
  2601  00F8  28FC               	goto	u22_20
  2602  00F9                     u22_21:
  2603  00F9  0022               	movlb	2	; select bank2
  2604  00FA  140D               	bsf	13,0	;volatile
  2605  00FB  28FE               	goto	u23_24
  2606  00FC                     u22_20:
  2607  00FC  0022               	movlb	2	; select bank2
  2608  00FD  100D               	bcf	13,0	;volatile
  2609  00FE                     u23_24:
  2610  00FE                     i1l164:
  2611  00FE  0008               	return
  2612  00FF                     __end_of_ToggleLamp:
  2613                           
  2614                           	psect	text16
  2615  015A                     __ptext16:	
  2616 ;; *************** function _LampOff *****************
  2617 ;; Defined at:
  2618 ;;		line 54 in file "main.c"
  2619 ;; Parameters:    Size  Location     Type
  2620 ;;		None
  2621 ;; Auto vars:     Size  Location     Type
  2622 ;;		None
  2623 ;; Return value:  Size  Location     Type
  2624 ;;                  1    wreg      void 
  2625 ;; Registers used:
  2626 ;;		None
  2627 ;; Tracked objects:
  2628 ;;		On entry : 0/0
  2629 ;;		On exit  : 0/0
  2630 ;;		Unchanged: 0/0
  2631 ;; Data sizes:     COMMON   BANK0   BANK1   BANK2   BANK3   BANK4
  2632 ;;      Params:         0       0       0       0       0       0
  2633 ;;      Locals:         0       0       0       0       0       0
  2634 ;;      Temps:          0       0       0       0       0       0
  2635 ;;      Totals:         0       0       0       0       0       0
  2636 ;;Total ram usage:        0 bytes
  2637 ;; Hardware stack levels used:    1
  2638 ;; This function calls:
  2639 ;;		Nothing
  2640 ;; This function is called by:
  2641 ;;		_VTStateChanged
  2642 ;; This function uses a non-reentrant model
  2643 ;;
  2644                           
  2645                           
  2646                           ;psect for function _LampOff
  2647  015A                     _LampOff:
  2648  015A                     i1l994:	
  2649                           ;incstack = 0
  2650                           ; Regs used in _LampOff: []
  2651                           
  2652                           
  2653                           ;main.c: 56:     LATBbits.LATB3 = 0;
  2654  015A  0022               	movlb	2	; select bank2
  2655  015B  118D               	bcf	13,3	;volatile
  2656                           
  2657                           ;main.c: 57:     LATBbits.LATB0 = 1;
  2658  015C  140D               	bsf	13,0	;volatile
  2659  015D                     i1l167:
  2660  015D  0008               	return
  2661  015E                     __end_of_LampOff:
  2662  007E                     btemp	set	126	;btemp
  2663  007E                     int$flags	set	126
  2664  007E                     wtemp0	set	126
  2665                           
  2666                           	psect	config
  2667                           
  2668                           ;Config register CONFIG1 @ 0x8007
  2669                           ;	Oscillator Selection
  2670                           ;	FOSC = INTOSC, INTOSC oscillator: I/O function on CLKIN pin
  2671                           ;	Watchdog Timer Enable
  2672                           ;	WDTE = OFF, WDT disabled
  2673                           ;	Power-up Timer Enable
  2674                           ;	PWRTE = OFF, PWRT disabled
  2675                           ;	MCLR Pin Function Select
  2676                           ;	MCLRE = ON, MCLR/VPP pin function is MCLR
  2677                           ;	Flash Program Memory Code Protection
  2678                           ;	CP = OFF, Program memory code protection is disabled
  2679                           ;	Data Memory Code Protection
  2680                           ;	CPD = OFF, Data memory code protection is disabled
  2681                           ;	Brown-out Reset Enable
  2682                           ;	BOREN = ON, Brown-out Reset enabled
  2683                           ;	Clock Out Enable
  2684                           ;	CLKOUTEN = OFF, CLKOUT function is disabled. I/O or oscillator function on the CLKOUT 
      +                          pin
  2685                           ;	Internal/External Switchover
  2686                           ;	IESO = ON, Internal/External Switchover mode is enabled
  2687                           ;	Fail-Safe Clock Monitor Enable
  2688                           ;	FCMEN = ON, Fail-Safe Clock Monitor is enabled
  2689  8007                     	org	32775
  2690  8007  3FE4               	dw	16356
  2691                           
  2692                           ;Config register CONFIG2 @ 0x8008
  2693                           ;	Flash Memory Self-Write Protection
  2694                           ;	WRT = OFF, Write protection off
  2695                           ;	PLL Enable
  2696                           ;	PLLEN = OFF, 4x PLL disabled
  2697                           ;	Stack Overflow/Underflow Reset Enable
  2698                           ;	STVREN = ON, Stack Overflow or Underflow will cause a Reset
  2699                           ;	Brown-out Reset Voltage Selection
  2700                           ;	BORV = LO, Brown-out Reset Voltage (Vbor), low trip point selected.
  2701                           ;	Low-Voltage Programming Enable
  2702                           ;	LVP = ON, Low-voltage programming enabled
  2703  8008                     	org	32776
  2704  8008  3EFF               	dw	16127

Data Sizes:
    Strings     0
    Constant    2
    Data        0
    BSS         3
    Persistent  34
    Stack       0

Auto Spaces:
    Space          Size  Autos    Used
    COMMON           14     12      13
    BANK0            80      0       4
    BANK1            80      0       0
    BANK2            80      0       0
    BANK3            80      0       0
    BANK4            48      0       0

Pointer List with Targets:

    ADC_InterruptHandler	PTR FTN()void  size(2) Largest target is 1
		 -> Absolute function(), 

    IOCBF5_SetInterruptHandler@InterruptHandler	PTR FTN()void  size(2) Largest target is 1
		 -> VTStateChanged(), IOCBF5_DefaultInterruptHandler(), 

    IOCBF5_InterruptHandler	PTR FTN()void  size(2) Largest target is 1
		 -> VTStateChanged(), Absolute function(), IOCBF5_DefaultInterruptHandler(), 


Critical Paths under _main in COMMON

    _main->_GetBatteryLevel
    _PIN_MANAGER_Initialize->_IOCBF5_SetInterruptHandler
    _GetBatteryLevel->_ADC_GetConversion

Critical Paths under _INTERRUPT_InterruptManager in COMMON

    None.

Critical Paths under _main in BANK0

    None.

Critical Paths under _INTERRUPT_InterruptManager in BANK0

    None.

Critical Paths under _main in BANK1

    None.

Critical Paths under _INTERRUPT_InterruptManager in BANK1

    None.

Critical Paths under _main in BANK2

    None.

Critical Paths under _INTERRUPT_InterruptManager in BANK2

    None.

Critical Paths under _main in BANK3

    None.

Critical Paths under _INTERRUPT_InterruptManager in BANK3

    None.

Critical Paths under _main in BANK4

    None.

Critical Paths under _INTERRUPT_InterruptManager in BANK4

    None.

Call Graph Tables:

 ---------------------------------------------------------------------------------
 (Depth) Function   	        Calls       Base Space   Used Autos Params    Refs
 ---------------------------------------------------------------------------------
 (0) _main                                                 3     3      0     529
                                              9 COMMON     3     3      0
                    _GetBatteryLevel
         _IOCBF5_SetInterruptHandler
                  _SYSTEM_Initialize
 ---------------------------------------------------------------------------------
 (1) _SYSTEM_Initialize                                    0     0      0     174
                     _ADC_Initialize
                     _FVR_Initialize
              _OSCILLATOR_Initialize
             _PIN_MANAGER_Initialize
                     _WDT_Initialize
 ---------------------------------------------------------------------------------
 (2) _WDT_Initialize                                       0     0      0       0
 ---------------------------------------------------------------------------------
 (2) _PIN_MANAGER_Initialize                               0     0      0     174
         _IOCBF5_SetInterruptHandler
 ---------------------------------------------------------------------------------
 (3) _IOCBF5_SetInterruptHandler                           2     0      2     174
                                              0 COMMON     2     0      2
 ---------------------------------------------------------------------------------
 (2) _OSCILLATOR_Initialize                                0     0      0       0
 ---------------------------------------------------------------------------------
 (2) _FVR_Initialize                                       0     0      0       0
 ---------------------------------------------------------------------------------
 (2) _ADC_Initialize                                       0     0      0       0
 ---------------------------------------------------------------------------------
 (1) _GetBatteryLevel                                      5     5      0     157
                                              4 COMMON     5     5      0
                  _ADC_GetConversion
 ---------------------------------------------------------------------------------
 (2) _ADC_GetConversion                                    4     2      2      22
                                              0 COMMON     4     2      2
 ---------------------------------------------------------------------------------
 Estimated maximum stack depth 3
 ---------------------------------------------------------------------------------
 (Depth) Function   	        Calls       Base Space   Used Autos Params    Refs
 ---------------------------------------------------------------------------------
 (4) _INTERRUPT_InterruptManager                           0     0      0       0
                    _PIN_MANAGER_IOC
 ---------------------------------------------------------------------------------
 (5) _PIN_MANAGER_IOC                                      0     0      0       0
                         _IOCBF5_ISR
 ---------------------------------------------------------------------------------
 (6) _IOCBF5_ISR                                           0     0      0       0
                   Absolute function *
     _IOCBF5_DefaultInterruptHandler *
                     _VTStateChanged *
 ---------------------------------------------------------------------------------
 (7) _VTStateChanged                                       0     0      0       0
                            _LampOff
                         _ToggleLamp
 ---------------------------------------------------------------------------------
 (8) _ToggleLamp                                           0     0      0       0
 ---------------------------------------------------------------------------------
 (8) _LampOff                                              0     0      0       0
 ---------------------------------------------------------------------------------
 (7) _IOCBF5_DefaultInterruptHandler                       0     0      0       0
 ---------------------------------------------------------------------------------
 (7) Absolute function(Fake)                               0     0      0       0
 ---------------------------------------------------------------------------------
 Estimated maximum stack depth 8
 ---------------------------------------------------------------------------------

 Call Graph Graphs:

 _main (ROOT)
   _GetBatteryLevel
     _ADC_GetConversion
   _IOCBF5_SetInterruptHandler
   _SYSTEM_Initialize
     _ADC_Initialize
     _FVR_Initialize
     _OSCILLATOR_Initialize
     _PIN_MANAGER_Initialize
       _IOCBF5_SetInterruptHandler
     _WDT_Initialize

 _INTERRUPT_InterruptManager (ROOT)
   _PIN_MANAGER_IOC
     _IOCBF5_ISR
       Absolute function(Fake) *
       _IOCBF5_DefaultInterruptHandler *
       _VTStateChanged *
         _LampOff
         _ToggleLamp

 Address spaces:
Name               Size   Autos  Total    Cost      Usage
BIGRAM             170      0       0       0        0.0%
EEDATA             100      0       0       0        0.0%
NULL                 0      0       0       0        0.0%
CODE                 0      0       0       0        0.0%
BITCOMMON            E      0       0       1        0.0%
BITSFR0              0      0       0       1        0.0%
SFR0                 0      0       0       1        0.0%
COMMON               E      C       D       2       92.9%
BITSFR1              0      0       0       2        0.0%
SFR1                 0      0       0       2        0.0%
BITSFR2              0      0       0       3        0.0%
SFR2                 0      0       0       3        0.0%
STACK                0      0       0       3        0.0%
BITSFR3              0      0       0       4        0.0%
SFR3                 0      0       0       4        0.0%
ABS                  0      0      11       4        0.0%
BITBANK0            50      0       0       5        0.0%
BITSFR4              0      0       0       5        0.0%
SFR4                 0      0       0       5        0.0%
BANK0               50      0       4       6        5.0%
BITSFR5              0      0       0       6        0.0%
SFR5                 0      0       0       6        0.0%
BITBANK1            50      0       0       7        0.0%
BITSFR6              0      0       0       7        0.0%
SFR6                 0      0       0       7        0.0%
BANK1               50      0       0       8        0.0%
BITSFR7              0      0       0       8        0.0%
SFR7                 0      0       0       8        0.0%
BITBANK2            50      0       0       9        0.0%
BITSFR8              0      0       0       9        0.0%
SFR8                 0      0       0       9        0.0%
BANK2               50      0       0      10        0.0%
BITSFR9              0      0       0      10        0.0%
SFR9                 0      0       0      10        0.0%
BITBANK3            50      0       0      11        0.0%
BITSFR10             0      0       0      11        0.0%
SFR10                0      0       0      11        0.0%
BANK3               50      0       0      12        0.0%
BITSFR11             0      0       0      12        0.0%
SFR11                0      0       0      12        0.0%
BITBANK4            30      0       0      13        0.0%
BITSFR12             0      0       0      13        0.0%
SFR12                0      0       0      13        0.0%
BANK4               30      0       0      14        0.0%
BITSFR13             0      0       0      14        0.0%
SFR13                0      0       0      14        0.0%
BITSFR14             0      0       0      15        0.0%
SFR14                0      0       0      15        0.0%
DATA                 0      0      11      15        0.0%
BITSFR15             0      0       0      16        0.0%
SFR15                0      0       0      16        0.0%
BITSFR16             0      0       0      17        0.0%
SFR16                0      0       0      17        0.0%
BITSFR17             0      0       0      18        0.0%
SFR17                0      0       0      18        0.0%
BITSFR18             0      0       0      19        0.0%
SFR18                0      0       0      19        0.0%
BITSFR19             0      0       0      20        0.0%
SFR19                0      0       0      20        0.0%
BITSFR20             0      0       0      21        0.0%
SFR20                0      0       0      21        0.0%
BITSFR21             0      0       0      22        0.0%
SFR21                0      0       0      22        0.0%
BITSFR22             0      0       0      23        0.0%
SFR22                0      0       0      23        0.0%
BITSFR23             0      0       0      24        0.0%
SFR23                0      0       0      24        0.0%
BITSFR24             0      0       0      25        0.0%
SFR24                0      0       0      25        0.0%
BITSFR25             0      0       0      26        0.0%
SFR25                0      0       0      26        0.0%
BITSFR26             0      0       0      27        0.0%
SFR26                0      0       0      27        0.0%
BITSFR27             0      0       0      28        0.0%
SFR27                0      0       0      28        0.0%
BITSFR28             0      0       0      29        0.0%
SFR28                0      0       0      29        0.0%
BITSFR29             0      0       0      30        0.0%
SFR29                0      0       0      30        0.0%
BITSFR30             0      0       0      31        0.0%
SFR30                0      0       0      31        0.0%
BITSFR31             0      0       0      32        0.0%
SFR31                0      0       0      32        0.0%


Microchip Technology PIC Macro Assembler V2.20 build 20200408173844 
Symbol Table                                                                                   Sat Dec 12 20:57:00 2020

                                        l21 0125                                          l24 0151  
                                        l27 0155                                          l68 00C9  
                                        l79 014B                      __end_of_FVR_Initialize 015A  
                           _GetBatteryLevel 001D                                         l110 0145  
                                       l200 0070                                         l125 010D  
                                       l128 0115                                         l138 0159  
                                       l191 0059                                         l185 004D  
                                       l195 0064                                         l189 0058  
                                       l198 0066                                         l870 014C  
                                       l880 0142                                         l872 0152  
                                       l874 0156                                         l876 013E  
                                       l878 0141                                         l996 0146  
                                       u310 0029                                         u311 0026  
                                       u330 004D                                         u331 004C  
                                       u340 0058                                         u324 002B  
                                       u341 0057                                         u350 0064  
                                       u351 0063                                         u407 0092  
                                       u417 0068                                         u290 0111  
                                       u291 0110                                         u380 00A4  
                                       u381 00A3                                         u397 007A  
                                       wreg 0009                                        l1010 00B4  
                                      l1020 00BC                                        l1012 00B5  
                                      l1100 007E                                        l1030 00C8  
                                      l1022 00BD                                        l1014 00B7  
                                      l1110 008A                                        l1102 0080  
                                      l1040 010A                                        l1024 00BF  
                                      l1016 00B8                                        l1008 00A7  
                                      l1112 008D                                        l1104 0081  
                                      l1042 010B                                        l1026 00C0  
                                      l1018 00BA                                        l1050 0116  
                                      l1114 008F                                        l1106 0088  
                                      l1044 010B                                        l1028 00C1  
                                      l1052 0119                                        l1116 0097  
                                      l1108 0089                                        l1046 0111  
                                      l1038 0100                                        l1070 0033  
                                      l1054 011C                                        l1080 005B  
                                      l1072 0041                                        l1064 001D  
                                      l1056 011F                                        l1082 0067  
                                      l1074 0043                                        l1066 0022  
                                      l1058 0122                                        l1084 006A  
                                      l1076 0044                                        l1068 002B  
                                      l1092 0071                                        l1078 004F  
                                      l1094 0074                                        l1096 0076  
                                      l1098 0077                                        _LATA 010C  
                                      _LATB 010D                                 main@counter 007A  
                                      i1l72 013D                                        i1l82 0160  
                                      i1l76 0134                                        i1l93 0011  
                                      _WPUA 020C                                        _WPUB 020D  
                                      _main 0071                                        btemp 007E  
                                      start 0013                             __end_of_LampOff 015E  
                           ?_FVR_Initialize 0070              __size_of_OSCILLATOR_Initialize 0006  
             __end_of_OSCILLATOR_Initialize 0152                         __size_of_IOCBF5_ISR 000F  
                                     ?_main 0070                                       i1l170 00D3  
                                     i1l164 00FE                                       i1l172 00D9  
                                     i1l173 00E6                                       i1l174 00DE  
                                     i1l167 015D                                       i1l177 00E6  
                                     i1l992 00E7                                       i1l994 015A  
                                     i1l998 00CA                                       u20_20 00F1  
                                     u20_21 00EE                                       u21_24 00F3  
                                     u22_20 00FC                                       u30_20 013A  
                                     u22_21 00F9                                       u30_21 0139  
                                     u23_24 00FE                                       u24_20 00CF  
                                     u24_21 00CE                                       u25_20 00D7  
                                     u25_21 00D6                                       u26_20 00DD  
                                     u26_21 00DC                                       u27_20 00E2  
                                     u27_21 00E1                                       u28_20 012D  
                                     u36_20 000A                                       u28_21 012C  
                                     u36_21 0009                                       u37_20 000E  
                                     u37_21 000D                                       _TRISA 008C  
                                     _TRISB 008D                     __end_of_PIN_MANAGER_IOC 013E  
                            _WDT_Initialize 0152                                       _state 007C  
                                     pclath 000A                                       status 0003  
                                     wtemp0 007E                             __initialization 0015  
                   __end_of_GetBatteryLevel 0071                                __end_of_main 00A7  
               ?_INTERRUPT_InterruptManager 0070                                      ??_main 0079  
                    __end_of_WDT_Initialize 0156                                      _ADCON0 009D  
                                    _ADCON1 009E                ??_IOCBF5_SetInterruptHandler 0072  
                                    _ADRESH 009C                                      _ADRESL 009B  
                                    _ANSELA 018C                                      _ANSELB 018D  
                                    _BORCON 0116                                      i1l1000 00CF  
                                    i1l1002 00D7                                      i1l1006 00E2  
                                    i1l1032 0126                                      i1l1034 012D  
                                    i1l1036 0132                                      i1l1060 0135  
                                    i1l1062 013A                                      i1l1090 000E  
                                    i1l1086 0006                                      i1l1088 000A  
                                    _FVRCON 0117                                      _OSCCON 0099  
                                    _WDTCON 0097                                   ??_LampOff 0070  
       __size_of_IOCBF5_SetInterruptHandler 0006                                  _ToggleLamp 00E7  
                           ?_WDT_Initialize 0070                    ADC_GetConversion@channel 0073  
IOCBF5_SetInterruptHandler@InterruptHandler 0070                            ?_PIN_MANAGER_IOC 0070  
                              ??_IOCBF5_ISR 0070                           _SYSTEM_Initialize 0116  
                   __end_of__initialization 0019                          ?_SYSTEM_Initialize 0070  
                            __pcstackCOMMON 0070                            ?_GetBatteryLevel 0070  
                       ??_SYSTEM_Initialize 0072                       GetBatteryLevel@ledval 0076  
                        __end_of_IOCBF5_ISR 0135                              _OPTION_REGbits 0095  
                 __end_of_SYSTEM_Initialize 0126                                  __pbssBANK0 0022  
                          ??_FVR_Initialize 0070                                  __pmaintext 0071  
                                __pintentry 0004                     __size_of_VTStateChanged 001D  
                                   _APFCON0 011D                                     _APFCON1 011E  
                            main@maxCounter 015E                     __size_of_ADC_Initialize 0008  
                               ?_ToggleLamp 0070          __end_of_IOCBF5_SetInterruptHandler 014C  
                _IOCBF5_SetInterruptHandler 0146                                     _OSCTUNE 0098  
                                   _LampOff 015A                        _ADC_InterruptHandler 0022  
                    __end_ofmain@maxCounter 0160                                     __ptext1 0116  
                                   __ptext2 0152                                     __ptext3 00A7  
                                   __ptext4 0146                                     __ptext5 014C  
                                   __ptext6 0156                                     __ptext7 013E  
                                   __ptext8 001D                                     __ptext9 00FF  
                     _OSCILLATOR_Initialize 014C                    ??_PIN_MANAGER_Initialize 0072  
                                 _IOCBFbits 0396                                   _IOCBNbits 0395  
                                 _IOCBPbits 0394                  __size_of_SYSTEM_Initialize 0010  
                      end_of_initialization 0019                         __size_of_ToggleLamp 0018  
                          ??_WDT_Initialize 0070                                   _PORTAbits 000C  
                            _VTStateChanged 00CA                              _ADC_Initialize 013E  
                    ?_OSCILLATOR_Initialize 0070                         start_initialization 0015  
           __size_of_PIN_MANAGER_Initialize 0023                    __size_of_PIN_MANAGER_IOC 0009  
                    __end_of_VTStateChanged 00E7                      __end_of_ADC_Initialize 0146  
                              ??_ToggleLamp 0070                    __size_of_GetBatteryLevel 0054  
                               __pbssCOMMON 007C                                   ___latbits 0001  
               ?_IOCBF5_SetInterruptHandler 0070                                    ?_LampOff 0070  
                                 __pnvBANK0 0020                          __end_of_ToggleLamp 00FF  
                    _PIN_MANAGER_Initialize 00A7                             ?_VTStateChanged 0070  
                           ?_ADC_Initialize 0070                ??_INTERRUPT_InterruptManager 0070  
          ??_IOCBF5_DefaultInterruptHandler 0070             ?_IOCBF5_DefaultInterruptHandler 0070  
                                  _LATAbits 010C                                    _LATBbits 010D  
       __size_of_INTERRUPT_InterruptManager 000F                           ??_PIN_MANAGER_IOC 0070  
                                _ADCON0bits 009D                     __size_of_FVR_Initialize 0004  
                         ??_GetBatteryLevel 0074                            __size_of_LampOff 0004  
                         _ADC_GetConversion 00FF                     ??_OSCILLATOR_Initialize 0070  
                        ?_ADC_GetConversion 0070                         ??_ADC_GetConversion 0072  
                                  __ptext11 0135                                    __ptext12 0126  
                                  __ptext13 0160                                    __ptext14 00CA  
                                  __ptext15 00E7                                    __ptext16 015A  
                                _IOCBF5_ISR 0126                               __size_of_main 0036  
                 __end_of_ADC_GetConversion 0116                                    int$flags 007E  
        __end_of_INTERRUPT_InterruptManager 0013                  _INTERRUPT_InterruptManager 0004  
                                _INTCONbits 000B                                  _FVRCONbits 0117  
                   __size_of_WDT_Initialize 0004                          GetBatteryLevel@val 0077  
                                  intlevel1 0000                     ?_PIN_MANAGER_Initialize 0070  
                          ??_VTStateChanged 0070                            ??_ADC_Initialize 0070  
                             __pstringtext1 015E                              _FVR_Initialize 0156  
                               ?_IOCBF5_ISR 0070              __end_of_PIN_MANAGER_Initialize 00CA  
    __end_of_IOCBF5_DefaultInterruptHandler 0161     __size_of_IOCBF5_DefaultInterruptHandler 0001  
            _IOCBF5_DefaultInterruptHandler 0160                             _PIN_MANAGER_IOC 0135  
                __size_of_ADC_GetConversion 0017                     _IOCBF5_InterruptHandler 0020  
